SF:/home/eastgate/Development/ecoPrimals/phase2/biomeOS/crates/biomeos-graph/src/ai_advisor.rs
FN:385,_RNCNvMs_NtCsJMpZlj22r6_13biomeos_graph10ai_advisorNtB6_14AiGraphAdvisor13send_feedback0B8_
FN:398,_RNCNvMs_NtCsJMpZlj22r6_13biomeos_graph10ai_advisorNtB6_14AiGraphAdvisor16learn_from_event0B8_
FN:371,_RNCNvMs_NtCsJMpZlj22r6_13biomeos_graph10ai_advisorNtB6_14AiGraphAdvisor19send_learning_event0B8_
FN:201,_RNvMs_NtCsJMpZlj22r6_13biomeos_graph10ai_advisorNtB4_14AiGraphAdvisor12with_timeout
FN:385,_RNvMs_NtCsJMpZlj22r6_13biomeos_graph10ai_advisorNtB4_14AiGraphAdvisor13send_feedback
FN:398,_RNvMs_NtCsJMpZlj22r6_13biomeos_graph10ai_advisorNtB4_14AiGraphAdvisor16learn_from_event
FN:371,_RNvMs_NtCsJMpZlj22r6_13biomeos_graph10ai_advisorNtB4_14AiGraphAdvisor19send_learning_event
FN:444,_RNvXs0_NtCsJMpZlj22r6_13biomeos_graph10ai_advisorNtB5_14AiGraphAdvisorNtNtCs5GmCzIpY9Qj_4core7default7Default7default
FN:237,_RNCNCNvMs_NtCsJMpZlj22r6_13biomeos_graph10ai_advisorNtB8_14AiGraphAdvisor24get_squirrel_suggestions00Ba_
FN:224,_RNCNvMs_NtCsJMpZlj22r6_13biomeos_graph10ai_advisorNtB6_14AiGraphAdvisor15get_suggestions0B8_
FN:233,_RNCNvMs_NtCsJMpZlj22r6_13biomeos_graph10ai_advisorNtB6_14AiGraphAdvisor24get_squirrel_suggestions0B8_
FN:210,_RNCNvMs_NtCsJMpZlj22r6_13biomeos_graph10ai_advisorNtB6_14AiGraphAdvisor27check_squirrel_availability0B8_
FN:569,_RNCNvNtNtCsJMpZlj22r6_13biomeos_graph10ai_advisor5testss_26test_get_local_suggestions0B7_
FN:587,_RNCNvNtNtCsJMpZlj22r6_13biomeos_graph10ai_advisor5testss_37test_get_suggestions_without_squirrel0B7_
FN:578,_RNCNvNtNtCsJMpZlj22r6_13biomeos_graph10ai_advisor5testss_40test_check_availability_graceful_failure0B7_
FN:149,_RNvMNtCsJMpZlj22r6_13biomeos_graph10ai_advisorNtB2_13GraphSnapshot10from_graph
FN:224,_RNvMs_NtCsJMpZlj22r6_13biomeos_graph10ai_advisorNtB4_14AiGraphAdvisor15get_suggestions
FN:261,_RNvMs_NtCsJMpZlj22r6_13biomeos_graph10ai_advisorNtB4_14AiGraphAdvisor21get_local_suggestions
FN:233,_RNvMs_NtCsJMpZlj22r6_13biomeos_graph10ai_advisorNtB4_14AiGraphAdvisor24get_squirrel_suggestions
FN:422,_RNvMs_NtCsJMpZlj22r6_13biomeos_graph10ai_advisorNtB4_14AiGraphAdvisor25initialize_local_patterns
FN:210,_RNvMs_NtCsJMpZlj22r6_13biomeos_graph10ai_advisorNtB4_14AiGraphAdvisor27check_squirrel_availability
FN:322,_RNvMs_NtCsJMpZlj22r6_13biomeos_graph10ai_advisorNtB4_14AiGraphAdvisor29detect_missing_error_handling
FN:365,_RNvMs_NtCsJMpZlj22r6_13biomeos_graph10ai_advisorNtB4_14AiGraphAdvisor32detect_coordination_improvements
FN:283,_RNvMs_NtCsJMpZlj22r6_13biomeos_graph10ai_advisorNtB4_14AiGraphAdvisor34detect_parallelization_opportunity
FN:192,_RNvMs_NtCsJMpZlj22r6_13biomeos_graph10ai_advisorNtB4_14AiGraphAdvisor3new
FN:454,_RNvNtNtCsJMpZlj22r6_13biomeos_graph10ai_advisor5tests17create_test_graph
FN:511,_RNvNtNtCsJMpZlj22r6_13biomeos_graph10ai_advisor5testss_19test_graph_snapshot
FN:504,_RNvNtNtCsJMpZlj22r6_13biomeos_graph10ai_advisor5testss_21test_advisor_creation
FN:569,_RNvNtNtCsJMpZlj22r6_13biomeos_graph10ai_advisor5testss_26test_get_local_suggestions
FN:524,_RNvNtNtCsJMpZlj22r6_13biomeos_graph10ai_advisor5testss_27test_detect_parallelization
FN:541,_RNvNtNtCsJMpZlj22r6_13biomeos_graph10ai_advisor5testss_34test_detect_missing_error_handling
FN:587,_RNvNtNtCsJMpZlj22r6_13biomeos_graph10ai_advisor5testss_37test_get_suggestions_without_squirrel
FN:578,_RNvNtNtCsJMpZlj22r6_13biomeos_graph10ai_advisor5testss_40test_check_availability_graceful_failure
FNDA:0,_RNCNvMs_NtCsJMpZlj22r6_13biomeos_graph10ai_advisorNtB6_14AiGraphAdvisor13send_feedback0B8_
FNDA:0,_RNCNvMs_NtCsJMpZlj22r6_13biomeos_graph10ai_advisorNtB6_14AiGraphAdvisor16learn_from_event0B8_
FNDA:0,_RNCNvMs_NtCsJMpZlj22r6_13biomeos_graph10ai_advisorNtB6_14AiGraphAdvisor19send_learning_event0B8_
FNDA:0,_RNvMs_NtCsJMpZlj22r6_13biomeos_graph10ai_advisorNtB4_14AiGraphAdvisor12with_timeout
FNDA:0,_RNvMs_NtCsJMpZlj22r6_13biomeos_graph10ai_advisorNtB4_14AiGraphAdvisor13send_feedback
FNDA:0,_RNvMs_NtCsJMpZlj22r6_13biomeos_graph10ai_advisorNtB4_14AiGraphAdvisor16learn_from_event
FNDA:0,_RNvMs_NtCsJMpZlj22r6_13biomeos_graph10ai_advisorNtB4_14AiGraphAdvisor19send_learning_event
FNDA:0,_RNvXs0_NtCsJMpZlj22r6_13biomeos_graph10ai_advisorNtB5_14AiGraphAdvisorNtNtCs5GmCzIpY9Qj_4core7default7Default7default
FNDA:0,_RNCNCNvMs_NtCsJMpZlj22r6_13biomeos_graph10ai_advisorNtB8_14AiGraphAdvisor24get_squirrel_suggestions00Ba_
FNDA:1,_RNCNvMs_NtCsJMpZlj22r6_13biomeos_graph10ai_advisorNtB6_14AiGraphAdvisor15get_suggestions0B8_
FNDA:0,_RNCNvMs_NtCsJMpZlj22r6_13biomeos_graph10ai_advisorNtB6_14AiGraphAdvisor24get_squirrel_suggestions0B8_
FNDA:1,_RNCNvMs_NtCsJMpZlj22r6_13biomeos_graph10ai_advisorNtB6_14AiGraphAdvisor27check_squirrel_availability0B8_
FNDA:1,_RNCNvNtNtCsJMpZlj22r6_13biomeos_graph10ai_advisor5testss_26test_get_local_suggestions0B7_
FNDA:1,_RNCNvNtNtCsJMpZlj22r6_13biomeos_graph10ai_advisor5testss_37test_get_suggestions_without_squirrel0B7_
FNDA:1,_RNCNvNtNtCsJMpZlj22r6_13biomeos_graph10ai_advisor5testss_40test_check_availability_graceful_failure0B7_
FNDA:1,_RNvMNtCsJMpZlj22r6_13biomeos_graph10ai_advisorNtB2_13GraphSnapshot10from_graph
FNDA:1,_RNvMs_NtCsJMpZlj22r6_13biomeos_graph10ai_advisorNtB4_14AiGraphAdvisor15get_suggestions
FNDA:2,_RNvMs_NtCsJMpZlj22r6_13biomeos_graph10ai_advisorNtB4_14AiGraphAdvisor21get_local_suggestions
FNDA:0,_RNvMs_NtCsJMpZlj22r6_13biomeos_graph10ai_advisorNtB4_14AiGraphAdvisor24get_squirrel_suggestions
FNDA:6,_RNvMs_NtCsJMpZlj22r6_13biomeos_graph10ai_advisorNtB4_14AiGraphAdvisor25initialize_local_patterns
FNDA:1,_RNvMs_NtCsJMpZlj22r6_13biomeos_graph10ai_advisorNtB4_14AiGraphAdvisor27check_squirrel_availability
FNDA:3,_RNvMs_NtCsJMpZlj22r6_13biomeos_graph10ai_advisorNtB4_14AiGraphAdvisor29detect_missing_error_handling
FNDA:2,_RNvMs_NtCsJMpZlj22r6_13biomeos_graph10ai_advisorNtB4_14AiGraphAdvisor32detect_coordination_improvements
FNDA:3,_RNvMs_NtCsJMpZlj22r6_13biomeos_graph10ai_advisorNtB4_14AiGraphAdvisor34detect_parallelization_opportunity
FNDA:6,_RNvMs_NtCsJMpZlj22r6_13biomeos_graph10ai_advisorNtB4_14AiGraphAdvisor3new
FNDA:5,_RNvNtNtCsJMpZlj22r6_13biomeos_graph10ai_advisor5tests17create_test_graph
FNDA:1,_RNvNtNtCsJMpZlj22r6_13biomeos_graph10ai_advisor5testss_19test_graph_snapshot
FNDA:1,_RNvNtNtCsJMpZlj22r6_13biomeos_graph10ai_advisor5testss_21test_advisor_creation
FNDA:1,_RNvNtNtCsJMpZlj22r6_13biomeos_graph10ai_advisor5testss_26test_get_local_suggestions
FNDA:1,_RNvNtNtCsJMpZlj22r6_13biomeos_graph10ai_advisor5testss_27test_detect_parallelization
FNDA:1,_RNvNtNtCsJMpZlj22r6_13biomeos_graph10ai_advisor5testss_34test_detect_missing_error_handling
FNDA:1,_RNvNtNtCsJMpZlj22r6_13biomeos_graph10ai_advisor5testss_37test_get_suggestions_without_squirrel
FNDA:1,_RNvNtNtCsJMpZlj22r6_13biomeos_graph10ai_advisor5testss_40test_check_availability_graceful_failure
FNF:33
FNH:22
DA:149,1
DA:150,1
DA:152,4
DA:153,3
DA:154,3
DA:155,0
DA:156,0
DA:158,3
DA:161,1
DA:162,1
DA:163,1
DA:164,1
DA:165,1
DA:166,1
DA:167,1
DA:192,6
DA:193,6
DA:194,6
DA:195,6
DA:196,6
DA:197,6
DA:198,6
DA:201,0
DA:202,0
DA:203,0
DA:204,0
DA:205,0
DA:206,0
DA:207,0
DA:210,1
DA:219,1
DA:220,1
DA:221,1
DA:224,1
DA:225,1
DA:226,0
DA:228,1
DA:230,1
DA:233,0
DA:237,0
DA:241,0
DA:242,0
DA:243,0
DA:245,0
DA:246,0
DA:247,0
DA:249,0
DA:250,0
DA:254,0
DA:255,0
DA:258,0
DA:261,2
DA:262,2
DA:265,2
DA:266,2
DA:267,2
DA:270,2
DA:271,0
DA:272,2
DA:275,2
DA:276,0
DA:277,2
DA:279,2
DA:280,2
DA:283,3
DA:287,3
DA:289,3
DA:291,3
DA:292,3
DA:293,3
DA:294,3
DA:295,3
DA:296,3
DA:297,3
DA:298,3
DA:299,3
DA:300,3
DA:301,3
DA:302,3
DA:303,3
DA:304,3
DA:305,3
DA:306,3
DA:307,3
DA:308,3
DA:309,3
DA:310,3
DA:311,3
DA:312,3
DA:313,3
DA:314,3
DA:315,0
DA:316,0
DA:318,0
DA:319,3
DA:322,3
DA:325,3
DA:327,3
DA:329,1
DA:330,1
DA:331,1
DA:332,1
DA:333,1
DA:334,1
DA:335,1
DA:336,1
DA:337,1
DA:338,1
DA:339,1
DA:340,1
DA:341,1
DA:342,1
DA:343,1
DA:344,1
DA:345,1
DA:346,1
DA:347,1
DA:348,1
DA:349,1
DA:350,1
DA:351,1
DA:352,1
DA:353,1
DA:354,1
DA:355,1
DA:356,1
DA:357,1
DA:358,1
DA:359,2
DA:361,2
DA:362,3
DA:365,2
DA:367,2
DA:368,2
DA:371,0
DA:372,0
DA:374,0
DA:375,0
DA:381,0
DA:382,0
DA:385,0
DA:386,0
DA:387,0
DA:388,0
DA:394,0
DA:395,0
DA:398,0
DA:400,0
DA:401,0
DA:402,0
DA:403,0
DA:404,0
DA:405,0
DA:406,0
DA:407,0
DA:408,0
DA:409,0
DA:410,0
DA:411,0
DA:412,0
DA:413,0
DA:414,0
DA:415,0
DA:418,0
DA:419,0
DA:422,6
DA:423,6
DA:424,6
DA:425,6
DA:426,6
DA:427,6
DA:428,6
DA:429,6
DA:430,6
DA:431,6
DA:432,6
DA:433,6
DA:434,6
DA:435,6
DA:436,6
DA:437,6
DA:438,6
DA:440,6
DA:444,0
DA:445,0
DA:446,0
DA:454,5
DA:455,5
DA:456,5
DA:457,5
DA:458,5
DA:459,5
DA:460,5
DA:461,5
DA:462,5
DA:463,5
DA:464,5
DA:465,5
DA:466,5
DA:467,5
DA:468,5
DA:469,5
DA:470,5
DA:471,5
DA:472,5
DA:473,5
DA:474,5
DA:475,5
DA:476,5
DA:477,5
DA:478,5
DA:479,5
DA:480,5
DA:481,5
DA:482,5
DA:483,5
DA:484,5
DA:485,5
DA:486,5
DA:487,5
DA:488,5
DA:489,5
DA:490,5
DA:491,5
DA:492,5
DA:493,5
DA:494,5
DA:495,5
DA:496,5
DA:497,5
DA:498,5
DA:499,5
DA:500,5
DA:501,5
DA:504,1
DA:505,1
DA:506,1
DA:507,1
DA:508,1
DA:511,1
DA:512,1
DA:513,1
DA:515,1
DA:516,1
DA:517,1
DA:518,1
DA:519,1
DA:520,1
DA:521,1
DA:524,1
DA:525,1
DA:526,1
DA:528,1
DA:529,1
DA:531,1
DA:532,1
DA:536,1
DA:537,1
DA:538,1
DA:541,1
DA:542,1
DA:543,1
DA:546,4
DA:547,3
DA:548,3
DA:549,3
DA:550,3
DA:551,3
DA:552,3
DA:553,3
DA:554,3
DA:555,3
DA:556,3
DA:557,3
DA:558,3
DA:559,3
DA:561,1
DA:562,1
DA:564,1
DA:565,1
DA:566,1
DA:569,1
DA:570,1
DA:571,1
DA:573,1
DA:574,1
DA:575,1
DA:578,1
DA:579,1
DA:580,1
DA:582,1
DA:583,1
DA:584,1
DA:587,1
DA:588,1
DA:589,1
DA:591,1
DA:592,1
DA:594,1
DA:595,1
DA:596,1
BRF:0
BRH:0
LF:314
LH:247
end_of_record
SF:/home/eastgate/Development/ecoPrimals/phase2/biomeOS/crates/biomeos-graph/src/context.rs
FN:70,_RNvMNtCsJMpZlj22r6_13biomeos_graph7contextNtB2_16ExecutionContext15get_all_outputs
FN:127,_RNvMNtCsJMpZlj22r6_13biomeos_graph7contextNtB2_16ExecutionContext15get_primal_info
FN:134,_RNvXs_NtCsJMpZlj22r6_13biomeos_graph7contextNtB4_16ExecutionContextNtNtCs5GmCzIpY9Qj_4core7default7Default7default
FN:104,_RNCNvMNtCsJMpZlj22r6_13biomeos_graph7contextNtB4_16ExecutionContext25find_primal_by_capability0B6_
FN:116,_RNCNvMNtCsJMpZlj22r6_13biomeos_graph7contextNtB4_16ExecutionContext27find_primal_by_capabilities0B6_
FN:64,_RNvMNtCsJMpZlj22r6_13biomeos_graph7contextNtB2_16ExecutionContext10get_output
FN:58,_RNvMNtCsJMpZlj22r6_13biomeos_graph7contextNtB2_16ExecutionContext10set_output
FN:76,_RNvMNtCsJMpZlj22r6_13biomeos_graph7contextNtB2_16ExecutionContext15register_primal
FN:99,_RNvMNtCsJMpZlj22r6_13biomeos_graph7contextNtB2_16ExecutionContext25find_primal_by_capability
FN:109,_RNvMNtCsJMpZlj22r6_13biomeos_graph7contextNtB2_16ExecutionContext27find_primal_by_capabilities
FN:47,_RNvMNtCsJMpZlj22r6_13biomeos_graph7contextNtB2_16ExecutionContext3new
FN:144,_RNvNtNtCsJMpZlj22r6_13biomeos_graph7context5testss_19test_set_get_output
FN:153,_RNvNtNtCsJMpZlj22r6_13biomeos_graph7context5testss_29test_register_and_find_primal
FN:166,_RNvNtNtCsJMpZlj22r6_13biomeos_graph7context5testss_34test_find_by_multiple_capabilities
FNDA:0,_RNvMNtCsJMpZlj22r6_13biomeos_graph7contextNtB2_16ExecutionContext15get_all_outputs
FNDA:0,_RNvMNtCsJMpZlj22r6_13biomeos_graph7contextNtB2_16ExecutionContext15get_primal_info
FNDA:0,_RNvXs_NtCsJMpZlj22r6_13biomeos_graph7contextNtB4_16ExecutionContextNtNtCs5GmCzIpY9Qj_4core7default7Default7default
FNDA:1,_RNCNvMNtCsJMpZlj22r6_13biomeos_graph7contextNtB4_16ExecutionContext25find_primal_by_capability0B6_
FNDA:4,_RNCNvMNtCsJMpZlj22r6_13biomeos_graph7contextNtB4_16ExecutionContext27find_primal_by_capabilities0B6_
FNDA:1,_RNvMNtCsJMpZlj22r6_13biomeos_graph7contextNtB2_16ExecutionContext10get_output
FNDA:1,_RNvMNtCsJMpZlj22r6_13biomeos_graph7contextNtB2_16ExecutionContext10set_output
FNDA:3,_RNvMNtCsJMpZlj22r6_13biomeos_graph7contextNtB2_16ExecutionContext15register_primal
FNDA:1,_RNvMNtCsJMpZlj22r6_13biomeos_graph7contextNtB2_16ExecutionContext25find_primal_by_capability
FNDA:1,_RNvMNtCsJMpZlj22r6_13biomeos_graph7contextNtB2_16ExecutionContext27find_primal_by_capabilities
FNDA:3,_RNvMNtCsJMpZlj22r6_13biomeos_graph7contextNtB2_16ExecutionContext3new
FNDA:1,_RNvNtNtCsJMpZlj22r6_13biomeos_graph7context5testss_19test_set_get_output
FNDA:1,_RNvNtNtCsJMpZlj22r6_13biomeos_graph7context5testss_29test_register_and_find_primal
FNDA:1,_RNvNtNtCsJMpZlj22r6_13biomeos_graph7context5testss_34test_find_by_multiple_capabilities
FNF:14
FNH:11
DA:47,3
DA:48,3
DA:49,3
DA:50,3
DA:51,3
DA:52,3
DA:53,3
DA:54,3
DA:55,3
DA:58,1
DA:59,1
DA:60,1
DA:61,1
DA:64,1
DA:65,1
DA:66,1
DA:67,1
DA:70,0
DA:71,0
DA:72,0
DA:73,0
DA:76,3
DA:77,3
DA:80,3
DA:81,3
DA:82,3
DA:83,3
DA:84,3
DA:85,3
DA:89,8
DA:90,5
DA:91,5
DA:92,5
DA:93,5
DA:94,5
DA:95,5
DA:96,3
DA:99,1
DA:100,1
DA:101,1
DA:102,1
DA:103,1
DA:104,1
DA:105,1
DA:106,1
DA:109,1
DA:110,1
DA:113,2
DA:114,2
DA:115,2
DA:116,4
DA:118,2
DA:119,1
DA:120,1
DA:123,0
DA:124,1
DA:127,0
DA:128,0
DA:129,0
DA:130,0
DA:134,0
DA:135,0
DA:136,0
DA:144,1
DA:145,1
DA:146,1
DA:148,1
DA:149,1
DA:150,1
DA:153,1
DA:154,1
DA:156,1
DA:157,1
DA:158,1
DA:161,1
DA:162,1
DA:163,1
DA:166,1
DA:167,1
DA:169,1
DA:171,1
DA:172,1
DA:173,1
DA:176,1
DA:177,1
DA:179,1
DA:180,1
BRF:0
BRH:0
LF:89
LH:77
end_of_record
SF:/home/eastgate/Development/ecoPrimals/phase2/biomeOS/crates/biomeos-graph/src/events.rs
FN:228,_RNCNvMs0_NtCsJMpZlj22r6_13biomeos_graph6eventsNtB7_14EventCollector11collect_for0B9_
FN:228,_RNvMs0_NtCsJMpZlj22r6_13biomeos_graph6eventsNtB5_14EventCollector11collect_for
FN:265,_RNvMs0_NtCsJMpZlj22r6_13biomeos_graph6eventsNtB5_14EventCollector6events
FN:422,_RNCNCNvNtNtCsJMpZlj22r6_13biomeos_graph6events5testss_28test_concurrent_broadcasting00B9_
FN:329,_RNCNvNtNtCsJMpZlj22r6_13biomeos_graph6events5testss_19test_event_ordering0B7_
FN:353,_RNCNvNtNtCsJMpZlj22r6_13biomeos_graph6events5testss_20test_event_collector0B7_
FN:376,_RNCNvNtNtCsJMpZlj22r6_13biomeos_graph6events5testss_22test_broadcaster_stats0B7_
FN:282,_RNCNvNtNtCsJMpZlj22r6_13biomeos_graph6events5testss_22test_single_subscriber0B7_
FN:276,_RNCNvNtNtCsJMpZlj22r6_13biomeos_graph6events5testss_25test_broadcaster_creation0B7_
FN:303,_RNCNvNtNtCsJMpZlj22r6_13biomeos_graph6events5testss_25test_multiple_subscribers0B7_
FN:399,_RNCNvNtNtCsJMpZlj22r6_13biomeos_graph6events5testss_26test_graph_event_accessors0B7_
FN:414,_RNCNvNtNtCsJMpZlj22r6_13biomeos_graph6events5testss_28test_concurrent_broadcasting0B7_
FN:329,_RNvNtNtCsJMpZlj22r6_13biomeos_graph6events5testss_19test_event_ordering
FN:353,_RNvNtNtCsJMpZlj22r6_13biomeos_graph6events5testss_20test_event_collector
FN:376,_RNvNtNtCsJMpZlj22r6_13biomeos_graph6events5testss_22test_broadcaster_stats
FN:282,_RNvNtNtCsJMpZlj22r6_13biomeos_graph6events5testss_22test_single_subscriber
FN:276,_RNvNtNtCsJMpZlj22r6_13biomeos_graph6events5testss_25test_broadcaster_creation
FN:303,_RNvNtNtCsJMpZlj22r6_13biomeos_graph6events5testss_25test_multiple_subscribers
FN:399,_RNvNtNtCsJMpZlj22r6_13biomeos_graph6events5testss_26test_graph_event_accessors
FN:414,_RNvNtNtCsJMpZlj22r6_13biomeos_graph6events5testss_28test_concurrent_broadcasting
FN:250,_RNCNvMs0_NtCsJMpZlj22r6_13biomeos_graph6eventsNtB7_14EventCollector13collect_count0B9_
FN:199,_RNCNvMs_NtCsJMpZlj22r6_13biomeos_graph6eventsNtB6_21GraphEventBroadcaster5stats0B8_
FN:184,_RNCNvMs_NtCsJMpZlj22r6_13biomeos_graph6eventsNtB6_21GraphEventBroadcaster9broadcast0B8_
FN:172,_RNCNvMs_NtCsJMpZlj22r6_13biomeos_graph6eventsNtB6_21GraphEventBroadcaster9subscribe0B8_
FN:103,_RNvMNtCsJMpZlj22r6_13biomeos_graph6eventsNtB2_10GraphEvent8graph_id
FN:118,_RNvMNtCsJMpZlj22r6_13biomeos_graph6eventsNtB2_10GraphEvent9timestamp
FN:250,_RNvMs0_NtCsJMpZlj22r6_13biomeos_graph6eventsNtB5_14EventCollector13collect_count
FN:220,_RNvMs0_NtCsJMpZlj22r6_13biomeos_graph6eventsNtB5_14EventCollector3new
FN:205,_RNvMs_NtCsJMpZlj22r6_13biomeos_graph6eventsNtB4_21GraphEventBroadcaster16subscriber_count
FN:154,_RNvMs_NtCsJMpZlj22r6_13biomeos_graph6eventsNtB4_21GraphEventBroadcaster3new
FN:199,_RNvMs_NtCsJMpZlj22r6_13biomeos_graph6eventsNtB4_21GraphEventBroadcaster5stats
FN:184,_RNvMs_NtCsJMpZlj22r6_13biomeos_graph6eventsNtB4_21GraphEventBroadcaster9broadcast
FN:167,_RNvMs_NtCsJMpZlj22r6_13biomeos_graph6eventsNtB4_21GraphEventBroadcaster9subscribe
FNDA:0,_RNCNvMs0_NtCsJMpZlj22r6_13biomeos_graph6eventsNtB7_14EventCollector11collect_for0B9_
FNDA:0,_RNvMs0_NtCsJMpZlj22r6_13biomeos_graph6eventsNtB5_14EventCollector11collect_for
FNDA:0,_RNvMs0_NtCsJMpZlj22r6_13biomeos_graph6eventsNtB5_14EventCollector6events
FNDA:10,_RNCNCNvNtNtCsJMpZlj22r6_13biomeos_graph6events5testss_28test_concurrent_broadcasting00B9_
FNDA:1,_RNCNvNtNtCsJMpZlj22r6_13biomeos_graph6events5testss_19test_event_ordering0B7_
FNDA:1,_RNCNvNtNtCsJMpZlj22r6_13biomeos_graph6events5testss_20test_event_collector0B7_
FNDA:1,_RNCNvNtNtCsJMpZlj22r6_13biomeos_graph6events5testss_22test_broadcaster_stats0B7_
FNDA:1,_RNCNvNtNtCsJMpZlj22r6_13biomeos_graph6events5testss_22test_single_subscriber0B7_
FNDA:1,_RNCNvNtNtCsJMpZlj22r6_13biomeos_graph6events5testss_25test_broadcaster_creation0B7_
FNDA:1,_RNCNvNtNtCsJMpZlj22r6_13biomeos_graph6events5testss_25test_multiple_subscribers0B7_
FNDA:1,_RNCNvNtNtCsJMpZlj22r6_13biomeos_graph6events5testss_26test_graph_event_accessors0B7_
FNDA:1,_RNCNvNtNtCsJMpZlj22r6_13biomeos_graph6events5testss_28test_concurrent_broadcasting0B7_
FNDA:1,_RNvNtNtCsJMpZlj22r6_13biomeos_graph6events5testss_19test_event_ordering
FNDA:1,_RNvNtNtCsJMpZlj22r6_13biomeos_graph6events5testss_20test_event_collector
FNDA:1,_RNvNtNtCsJMpZlj22r6_13biomeos_graph6events5testss_22test_broadcaster_stats
FNDA:1,_RNvNtNtCsJMpZlj22r6_13biomeos_graph6events5testss_22test_single_subscriber
FNDA:1,_RNvNtNtCsJMpZlj22r6_13biomeos_graph6events5testss_25test_broadcaster_creation
FNDA:1,_RNvNtNtCsJMpZlj22r6_13biomeos_graph6events5testss_25test_multiple_subscribers
FNDA:1,_RNvNtNtCsJMpZlj22r6_13biomeos_graph6events5testss_26test_graph_event_accessors
FNDA:1,_RNvNtNtCsJMpZlj22r6_13biomeos_graph6events5testss_28test_concurrent_broadcasting
FNDA:2,_RNCNvMs0_NtCsJMpZlj22r6_13biomeos_graph6eventsNtB7_14EventCollector13collect_count0B9_
FNDA:1,_RNCNvMs_NtCsJMpZlj22r6_13biomeos_graph6eventsNtB6_21GraphEventBroadcaster5stats0B8_
FNDA:111,_RNCNvMs_NtCsJMpZlj22r6_13biomeos_graph6eventsNtB6_21GraphEventBroadcaster9broadcast0B8_
FNDA:3,_RNCNvMs_NtCsJMpZlj22r6_13biomeos_graph6eventsNtB6_21GraphEventBroadcaster9subscribe0B8_
FNDA:10,_RNvMNtCsJMpZlj22r6_13biomeos_graph6eventsNtB2_10GraphEvent8graph_id
FNDA:1,_RNvMNtCsJMpZlj22r6_13biomeos_graph6eventsNtB2_10GraphEvent9timestamp
FNDA:2,_RNvMs0_NtCsJMpZlj22r6_13biomeos_graph6eventsNtB5_14EventCollector13collect_count
FNDA:2,_RNvMs0_NtCsJMpZlj22r6_13biomeos_graph6eventsNtB5_14EventCollector3new
FNDA:3,_RNvMs_NtCsJMpZlj22r6_13biomeos_graph6eventsNtB4_21GraphEventBroadcaster16subscriber_count
FNDA:7,_RNvMs_NtCsJMpZlj22r6_13biomeos_graph6eventsNtB4_21GraphEventBroadcaster3new
FNDA:1,_RNvMs_NtCsJMpZlj22r6_13biomeos_graph6eventsNtB4_21GraphEventBroadcaster5stats
FNDA:111,_RNvMs_NtCsJMpZlj22r6_13biomeos_graph6eventsNtB4_21GraphEventBroadcaster9broadcast
FNDA:9,_RNvMs_NtCsJMpZlj22r6_13biomeos_graph6eventsNtB4_21GraphEventBroadcaster9subscribe
FNF:33
FNH:30
DA:103,10
DA:104,10
DA:105,1
DA:106,8
DA:107,0
DA:108,1
DA:109,0
DA:110,0
DA:111,0
DA:112,0
DA:113,0
DA:115,10
DA:118,1
DA:119,1
DA:120,0
DA:121,0
DA:122,0
DA:123,1
DA:124,0
DA:125,0
DA:126,0
DA:127,0
DA:128,0
DA:130,1
DA:154,7
DA:155,7
DA:157,7
DA:158,7
DA:159,7
DA:160,7
DA:161,7
DA:167,9
DA:168,9
DA:171,9
DA:172,9
DA:173,3
DA:174,3
DA:175,3
DA:177,9
DA:178,9
DA:184,111
DA:187,111
DA:188,111
DA:192,111
DA:193,111
DA:194,0
DA:196,111
DA:199,1
DA:200,1
DA:201,1
DA:202,1
DA:205,3
DA:206,3
DA:207,3
DA:220,2
DA:221,2
DA:222,2
DA:223,2
DA:224,2
DA:225,2
DA:228,0
DA:229,0
DA:232,0
DA:233,0
DA:234,0
DA:235,0
DA:236,0
DA:237,0
DA:239,0
DA:242,0
DA:246,0
DA:247,0
DA:250,2
DA:251,105
DA:252,103
DA:253,103
DA:254,0
DA:255,0
DA:257,0
DA:261,2
DA:262,2
DA:265,0
DA:266,0
DA:267,0
DA:276,1
DA:277,1
DA:278,1
DA:279,1
DA:282,1
DA:283,1
DA:284,1
DA:286,1
DA:288,1
DA:289,1
DA:290,1
DA:291,1
DA:292,1
DA:293,1
DA:294,1
DA:296,1
DA:298,1
DA:299,1
DA:300,1
DA:303,1
DA:304,1
DA:305,1
DA:306,1
DA:307,1
DA:309,1
DA:311,1
DA:312,1
DA:313,1
DA:314,1
DA:315,1
DA:316,1
DA:317,1
DA:319,1
DA:320,1
DA:323,1
DA:324,1
DA:325,1
DA:326,1
DA:329,1
DA:330,1
DA:331,1
DA:334,6
DA:335,5
DA:336,5
DA:337,5
DA:338,5
DA:339,5
DA:340,5
DA:341,5
DA:342,5
DA:343,1
DA:344,1
DA:345,1
DA:346,6
DA:347,5
DA:348,5
DA:349,1
DA:350,1
DA:353,1
DA:354,1
DA:355,1
DA:356,1
DA:359,4
DA:360,3
DA:361,3
DA:362,3
DA:363,3
DA:364,3
DA:365,3
DA:366,3
DA:367,3
DA:371,1
DA:372,1
DA:373,1
DA:376,1
DA:377,1
DA:378,1
DA:379,1
DA:382,1
DA:384,1
DA:385,1
DA:386,1
DA:387,1
DA:388,1
DA:389,1
DA:390,1
DA:392,1
DA:394,1
DA:395,1
DA:396,1
DA:399,1
DA:400,1
DA:401,1
DA:402,1
DA:403,1
DA:404,1
DA:405,1
DA:406,1
DA:407,1
DA:409,1
DA:410,1
DA:411,1
DA:414,1
DA:415,1
DA:416,1
DA:419,1
DA:420,11
DA:421,10
DA:422,10
DA:423,110
DA:424,100
DA:425,100
DA:426,100
DA:427,100
DA:428,100
DA:429,100
DA:430,100
DA:431,100
DA:433,10
DA:434,10
DA:438,11
DA:439,10
DA:443,1
DA:444,1
DA:445,1
DA:446,1
BRF:0
BRH:0
LF:243
LH:209
end_of_record
SF:/home/eastgate/Development/ecoPrimals/phase2/biomeOS/crates/biomeos-graph/src/executor.rs
FN:378,_RNCNCNCNvMs_NtCsJMpZlj22r6_13biomeos_graph8executorNtBa_13GraphExecutor22node_deployment_report0s_00Bc_
FN:175,_RNCNCNvMs_NtCsJMpZlj22r6_13biomeos_graph8executorNtB8_13GraphExecutor13execute_phase00Ba_
FN:182,_RNCNCNvMs_NtCsJMpZlj22r6_13biomeos_graph8executorNtB8_13GraphExecutor13execute_phase0s0_0Ba_
FN:176,_RNCNCNvMs_NtCsJMpZlj22r6_13biomeos_graph8executorNtB8_13GraphExecutor13execute_phase0s_0Ba_
FN:377,_RNCNCNvMs_NtCsJMpZlj22r6_13biomeos_graph8executorNtB8_13GraphExecutor22node_deployment_report00Ba_
FN:378,_RNCNCNvMs_NtCsJMpZlj22r6_13biomeos_graph8executorNtB8_13GraphExecutor22node_deployment_report0s_0Ba_
FN:298,_RNCNCNvMs_NtCsJMpZlj22r6_13biomeos_graph8executorNtB8_13GraphExecutor23node_crypto_derive_seed00Ba_
FN:305,_RNCNCNvMs_NtCsJMpZlj22r6_13biomeos_graph8executorNtB8_13GraphExecutor23node_crypto_derive_seed0s0_0Ba_
FN:306,_RNCNCNvMs_NtCsJMpZlj22r6_13biomeos_graph8executorNtB8_13GraphExecutor23node_crypto_derive_seed0s1_0Ba_
FN:311,_RNCNCNvMs_NtCsJMpZlj22r6_13biomeos_graph8executorNtB8_13GraphExecutor23node_crypto_derive_seed0s2_0Ba_
FN:312,_RNCNCNvMs_NtCsJMpZlj22r6_13biomeos_graph8executorNtB8_13GraphExecutor23node_crypto_derive_seed0s3_0Ba_
FN:318,_RNCNCNvMs_NtCsJMpZlj22r6_13biomeos_graph8executorNtB8_13GraphExecutor23node_crypto_derive_seed0s4_0Ba_
FN:319,_RNCNCNvMs_NtCsJMpZlj22r6_13biomeos_graph8executorNtB8_13GraphExecutor23node_crypto_derive_seed0s5_0Ba_
FN:299,_RNCNCNvMs_NtCsJMpZlj22r6_13biomeos_graph8executorNtB8_13GraphExecutor23node_crypto_derive_seed0s_0Ba_
FN:258,_RNCNCNvMs_NtCsJMpZlj22r6_13biomeos_graph8executorNtB8_13GraphExecutor28node_filesystem_check_exists00Ba_
FN:270,_RNCNCNvMs_NtCsJMpZlj22r6_13biomeos_graph8executorNtB8_13GraphExecutor28node_filesystem_check_exists0s0_0Ba_
FN:259,_RNCNCNvMs_NtCsJMpZlj22r6_13biomeos_graph8executorNtB8_13GraphExecutor28node_filesystem_check_exists0s_0Ba_
FN:72,_RNCNvMNtCsJMpZlj22r6_13biomeos_graph8executorNtB4_16ExecutionContext10get_output0B6_
FN:84,_RNCNvMNtCsJMpZlj22r6_13biomeos_graph8executorNtB4_16ExecutionContext10get_status0B6_
FN:66,_RNCNvMNtCsJMpZlj22r6_13biomeos_graph8executorNtB4_16ExecutionContext10set_output0B6_
FN:78,_RNCNvMNtCsJMpZlj22r6_13biomeos_graph8executorNtB4_16ExecutionContext10set_status0B6_
FN:227,_RNCNvMs_NtCsJMpZlj22r6_13biomeos_graph8executorNtB6_13GraphExecutor12execute_node0B8_
FN:160,_RNCNvMs_NtCsJMpZlj22r6_13biomeos_graph8executorNtB6_13GraphExecutor13execute_phase0B8_
FN:422,_RNCNvMs_NtCsJMpZlj22r6_13biomeos_graph8executorNtB6_13GraphExecutor16topological_sort0B8_
FN:453,_RNCNvMs_NtCsJMpZlj22r6_13biomeos_graph8executorNtB6_13GraphExecutor16topological_sorts0_0B8_
FN:423,_RNCNvMs_NtCsJMpZlj22r6_13biomeos_graph8executorNtB6_13GraphExecutor16topological_sorts_0B8_
FN:349,_RNCNvMs_NtCsJMpZlj22r6_13biomeos_graph8executorNtB6_13GraphExecutor17node_health_check0B8_
FN:335,_RNCNvMs_NtCsJMpZlj22r6_13biomeos_graph8executorNtB6_13GraphExecutor18node_primal_launch0B8_
FN:361,_RNCNvMs_NtCsJMpZlj22r6_13biomeos_graph8executorNtB6_13GraphExecutor19node_lineage_verify0B8_
FN:373,_RNCNvMs_NtCsJMpZlj22r6_13biomeos_graph8executorNtB6_13GraphExecutor22node_deployment_report0B8_
FN:291,_RNCNvMs_NtCsJMpZlj22r6_13biomeos_graph8executorNtB6_13GraphExecutor23node_crypto_derive_seed0B8_
FN:254,_RNCNvMs_NtCsJMpZlj22r6_13biomeos_graph8executorNtB6_13GraphExecutor28node_filesystem_check_exists0B8_
FN:108,_RNCNvMs_NtCsJMpZlj22r6_13biomeos_graph8executorNtB6_13GraphExecutor7execute0B8_
FN:461,_RNCNvMs_NtCsJMpZlj22r6_13biomeos_graph8executorNtB6_13GraphExecutor8rollback0B8_
FN:72,_RNvMNtCsJMpZlj22r6_13biomeos_graph8executorNtB2_16ExecutionContext10get_output
FN:84,_RNvMNtCsJMpZlj22r6_13biomeos_graph8executorNtB2_16ExecutionContext10get_status
FN:66,_RNvMNtCsJMpZlj22r6_13biomeos_graph8executorNtB2_16ExecutionContext10set_output
FN:78,_RNvMNtCsJMpZlj22r6_13biomeos_graph8executorNtB2_16ExecutionContext10set_status
FN:56,_RNvMNtCsJMpZlj22r6_13biomeos_graph8executorNtB2_16ExecutionContext3new
FN:479,_RNvMs0_NtCsJMpZlj22r6_13biomeos_graph8executorNtB5_15ExecutionReport3new
FN:501,_RNvMs1_NtCsJMpZlj22r6_13biomeos_graph8executorNtB5_11PhaseResult3new
FN:224,_RNvMs_NtCsJMpZlj22r6_13biomeos_graph8executorNtB4_13GraphExecutor12execute_node
FN:160,_RNvMs_NtCsJMpZlj22r6_13biomeos_graph8executorNtB4_13GraphExecutor13execute_phase
FN:401,_RNvMs_NtCsJMpZlj22r6_13biomeos_graph8executorNtB4_13GraphExecutor16topological_sort
FN:346,_RNvMs_NtCsJMpZlj22r6_13biomeos_graph8executorNtB4_13GraphExecutor17node_health_check
FN:332,_RNvMs_NtCsJMpZlj22r6_13biomeos_graph8executorNtB4_13GraphExecutor18node_primal_launch
FN:358,_RNvMs_NtCsJMpZlj22r6_13biomeos_graph8executorNtB4_13GraphExecutor19node_lineage_verify
FN:370,_RNvMs_NtCsJMpZlj22r6_13biomeos_graph8executorNtB4_13GraphExecutor22node_deployment_report
FN:288,_RNvMs_NtCsJMpZlj22r6_13biomeos_graph8executorNtB4_13GraphExecutor23node_crypto_derive_seed
FN:251,_RNvMs_NtCsJMpZlj22r6_13biomeos_graph8executorNtB4_13GraphExecutor28node_filesystem_check_exists
FN:99,_RNvMs_NtCsJMpZlj22r6_13biomeos_graph8executorNtB4_13GraphExecutor3new
FN:108,_RNvMs_NtCsJMpZlj22r6_13biomeos_graph8executorNtB4_13GraphExecutor7execute
FN:461,_RNvMs_NtCsJMpZlj22r6_13biomeos_graph8executorNtB4_13GraphExecutor8rollback
FN:680,_RNCNvNtNtCsJMpZlj22r6_13biomeos_graph8executor5testss_26test_mock_executor_failure0B7_
FN:662,_RNCNvNtNtCsJMpZlj22r6_13biomeos_graph8executor5testss_26test_mock_executor_success0B7_
FN:693,_RNCNvNtNtCsJMpZlj22r6_13biomeos_graph8executor5testss_29test_mock_executor_with_delay0B7_
FN:649,_RNCNvNtNtCsJMpZlj22r6_13biomeos_graph8executor5testss_31test_execution_context_creation0B7_
FN:389,_RNvMs_NtCsJMpZlj22r6_13biomeos_graph8executorNtB4_13GraphExecutor14substitute_env
FN:531,_RNvMNtNtCsJMpZlj22r6_13biomeos_graph8executor5testsNtB2_18MockPrimalExecutor10with_delay
FN:538,_RNvMNtNtCsJMpZlj22r6_13biomeos_graph8executor5testsNtB2_18MockPrimalExecutor12with_failure
FN:524,_RNvMNtNtCsJMpZlj22r6_13biomeos_graph8executor5testsNtB2_18MockPrimalExecutor3new
FN:569,_RNvNtNtCsJMpZlj22r6_13biomeos_graph8executor5tests17create_test_graph
FN:631,_RNvNtNtCsJMpZlj22r6_13biomeos_graph8executor5testss_16test_node_status
FN:708,_RNvNtNtCsJMpZlj22r6_13biomeos_graph8executor5testss_19test_graph_creation
FN:607,_RNvNtNtCsJMpZlj22r6_13biomeos_graph8executor5testss_21test_env_substitution
FN:744,_RNvNtNtCsJMpZlj22r6_13biomeos_graph8executor5testss_23test_operation_creation
FN:680,_RNvNtNtCsJMpZlj22r6_13biomeos_graph8executor5testss_26test_mock_executor_failure
FN:662,_RNvNtNtCsJMpZlj22r6_13biomeos_graph8executor5testss_26test_mock_executor_success
FN:730,_RNvNtNtCsJMpZlj22r6_13biomeos_graph8executor5testss_26test_primal_selector_by_id
FN:624,_RNvNtNtCsJMpZlj22r6_13biomeos_graph8executor5testss_29test_env_substitution_no_vars
FN:693,_RNvNtNtCsJMpZlj22r6_13biomeos_graph8executor5testss_29test_mock_executor_with_delay
FN:649,_RNvNtNtCsJMpZlj22r6_13biomeos_graph8executor5testss_31test_execution_context_creation
FN:617,_RNvNtNtCsJMpZlj22r6_13biomeos_graph8executor5testss_33test_env_substitution_missing_var
FN:716,_RNvNtNtCsJMpZlj22r6_13biomeos_graph8executor5testss_34test_primal_selector_by_capability
FN:552,_RNvXs_NtNtCsJMpZlj22r6_13biomeos_graph8executor5testsNtB4_18MockPrimalExecutorNtB6_23PrimalOperationExecutor17execute_operation
FNDA:0,_RNCNCNCNvMs_NtCsJMpZlj22r6_13biomeos_graph8executorNtBa_13GraphExecutor22node_deployment_report0s_00Bc_
FNDA:0,_RNCNCNvMs_NtCsJMpZlj22r6_13biomeos_graph8executorNtB8_13GraphExecutor13execute_phase00Ba_
FNDA:0,_RNCNCNvMs_NtCsJMpZlj22r6_13biomeos_graph8executorNtB8_13GraphExecutor13execute_phase0s0_0Ba_
FNDA:0,_RNCNCNvMs_NtCsJMpZlj22r6_13biomeos_graph8executorNtB8_13GraphExecutor13execute_phase0s_0Ba_
FNDA:0,_RNCNCNvMs_NtCsJMpZlj22r6_13biomeos_graph8executorNtB8_13GraphExecutor22node_deployment_report00Ba_
FNDA:0,_RNCNCNvMs_NtCsJMpZlj22r6_13biomeos_graph8executorNtB8_13GraphExecutor22node_deployment_report0s_0Ba_
FNDA:0,_RNCNCNvMs_NtCsJMpZlj22r6_13biomeos_graph8executorNtB8_13GraphExecutor23node_crypto_derive_seed00Ba_
FNDA:0,_RNCNCNvMs_NtCsJMpZlj22r6_13biomeos_graph8executorNtB8_13GraphExecutor23node_crypto_derive_seed0s0_0Ba_
FNDA:0,_RNCNCNvMs_NtCsJMpZlj22r6_13biomeos_graph8executorNtB8_13GraphExecutor23node_crypto_derive_seed0s1_0Ba_
FNDA:0,_RNCNCNvMs_NtCsJMpZlj22r6_13biomeos_graph8executorNtB8_13GraphExecutor23node_crypto_derive_seed0s2_0Ba_
FNDA:0,_RNCNCNvMs_NtCsJMpZlj22r6_13biomeos_graph8executorNtB8_13GraphExecutor23node_crypto_derive_seed0s3_0Ba_
FNDA:0,_RNCNCNvMs_NtCsJMpZlj22r6_13biomeos_graph8executorNtB8_13GraphExecutor23node_crypto_derive_seed0s4_0Ba_
FNDA:0,_RNCNCNvMs_NtCsJMpZlj22r6_13biomeos_graph8executorNtB8_13GraphExecutor23node_crypto_derive_seed0s5_0Ba_
FNDA:0,_RNCNCNvMs_NtCsJMpZlj22r6_13biomeos_graph8executorNtB8_13GraphExecutor23node_crypto_derive_seed0s_0Ba_
FNDA:0,_RNCNCNvMs_NtCsJMpZlj22r6_13biomeos_graph8executorNtB8_13GraphExecutor28node_filesystem_check_exists00Ba_
FNDA:0,_RNCNCNvMs_NtCsJMpZlj22r6_13biomeos_graph8executorNtB8_13GraphExecutor28node_filesystem_check_exists0s0_0Ba_
FNDA:0,_RNCNCNvMs_NtCsJMpZlj22r6_13biomeos_graph8executorNtB8_13GraphExecutor28node_filesystem_check_exists0s_0Ba_
FNDA:0,_RNCNvMNtCsJMpZlj22r6_13biomeos_graph8executorNtB4_16ExecutionContext10get_output0B6_
FNDA:0,_RNCNvMNtCsJMpZlj22r6_13biomeos_graph8executorNtB4_16ExecutionContext10get_status0B6_
FNDA:0,_RNCNvMNtCsJMpZlj22r6_13biomeos_graph8executorNtB4_16ExecutionContext10set_output0B6_
FNDA:0,_RNCNvMNtCsJMpZlj22r6_13biomeos_graph8executorNtB4_16ExecutionContext10set_status0B6_
FNDA:0,_RNCNvMs_NtCsJMpZlj22r6_13biomeos_graph8executorNtB6_13GraphExecutor12execute_node0B8_
FNDA:0,_RNCNvMs_NtCsJMpZlj22r6_13biomeos_graph8executorNtB6_13GraphExecutor13execute_phase0B8_
FNDA:0,_RNCNvMs_NtCsJMpZlj22r6_13biomeos_graph8executorNtB6_13GraphExecutor16topological_sort0B8_
FNDA:0,_RNCNvMs_NtCsJMpZlj22r6_13biomeos_graph8executorNtB6_13GraphExecutor16topological_sorts0_0B8_
FNDA:0,_RNCNvMs_NtCsJMpZlj22r6_13biomeos_graph8executorNtB6_13GraphExecutor16topological_sorts_0B8_
FNDA:0,_RNCNvMs_NtCsJMpZlj22r6_13biomeos_graph8executorNtB6_13GraphExecutor17node_health_check0B8_
FNDA:0,_RNCNvMs_NtCsJMpZlj22r6_13biomeos_graph8executorNtB6_13GraphExecutor18node_primal_launch0B8_
FNDA:0,_RNCNvMs_NtCsJMpZlj22r6_13biomeos_graph8executorNtB6_13GraphExecutor19node_lineage_verify0B8_
FNDA:0,_RNCNvMs_NtCsJMpZlj22r6_13biomeos_graph8executorNtB6_13GraphExecutor22node_deployment_report0B8_
FNDA:0,_RNCNvMs_NtCsJMpZlj22r6_13biomeos_graph8executorNtB6_13GraphExecutor23node_crypto_derive_seed0B8_
FNDA:0,_RNCNvMs_NtCsJMpZlj22r6_13biomeos_graph8executorNtB6_13GraphExecutor28node_filesystem_check_exists0B8_
FNDA:0,_RNCNvMs_NtCsJMpZlj22r6_13biomeos_graph8executorNtB6_13GraphExecutor7execute0B8_
FNDA:0,_RNCNvMs_NtCsJMpZlj22r6_13biomeos_graph8executorNtB6_13GraphExecutor8rollback0B8_
FNDA:0,_RNvMNtCsJMpZlj22r6_13biomeos_graph8executorNtB2_16ExecutionContext10get_output
FNDA:0,_RNvMNtCsJMpZlj22r6_13biomeos_graph8executorNtB2_16ExecutionContext10get_status
FNDA:0,_RNvMNtCsJMpZlj22r6_13biomeos_graph8executorNtB2_16ExecutionContext10set_output
FNDA:0,_RNvMNtCsJMpZlj22r6_13biomeos_graph8executorNtB2_16ExecutionContext10set_status
FNDA:0,_RNvMNtCsJMpZlj22r6_13biomeos_graph8executorNtB2_16ExecutionContext3new
FNDA:0,_RNvMs0_NtCsJMpZlj22r6_13biomeos_graph8executorNtB5_15ExecutionReport3new
FNDA:0,_RNvMs1_NtCsJMpZlj22r6_13biomeos_graph8executorNtB5_11PhaseResult3new
FNDA:0,_RNvMs_NtCsJMpZlj22r6_13biomeos_graph8executorNtB4_13GraphExecutor12execute_node
FNDA:0,_RNvMs_NtCsJMpZlj22r6_13biomeos_graph8executorNtB4_13GraphExecutor13execute_phase
FNDA:0,_RNvMs_NtCsJMpZlj22r6_13biomeos_graph8executorNtB4_13GraphExecutor16topological_sort
FNDA:0,_RNvMs_NtCsJMpZlj22r6_13biomeos_graph8executorNtB4_13GraphExecutor17node_health_check
FNDA:0,_RNvMs_NtCsJMpZlj22r6_13biomeos_graph8executorNtB4_13GraphExecutor18node_primal_launch
FNDA:0,_RNvMs_NtCsJMpZlj22r6_13biomeos_graph8executorNtB4_13GraphExecutor19node_lineage_verify
FNDA:0,_RNvMs_NtCsJMpZlj22r6_13biomeos_graph8executorNtB4_13GraphExecutor22node_deployment_report
FNDA:0,_RNvMs_NtCsJMpZlj22r6_13biomeos_graph8executorNtB4_13GraphExecutor23node_crypto_derive_seed
FNDA:0,_RNvMs_NtCsJMpZlj22r6_13biomeos_graph8executorNtB4_13GraphExecutor28node_filesystem_check_exists
FNDA:0,_RNvMs_NtCsJMpZlj22r6_13biomeos_graph8executorNtB4_13GraphExecutor3new
FNDA:0,_RNvMs_NtCsJMpZlj22r6_13biomeos_graph8executorNtB4_13GraphExecutor7execute
FNDA:0,_RNvMs_NtCsJMpZlj22r6_13biomeos_graph8executorNtB4_13GraphExecutor8rollback
FNDA:1,_RNCNvNtNtCsJMpZlj22r6_13biomeos_graph8executor5testss_26test_mock_executor_failure0B7_
FNDA:1,_RNCNvNtNtCsJMpZlj22r6_13biomeos_graph8executor5testss_26test_mock_executor_success0B7_
FNDA:1,_RNCNvNtNtCsJMpZlj22r6_13biomeos_graph8executor5testss_29test_mock_executor_with_delay0B7_
FNDA:1,_RNCNvNtNtCsJMpZlj22r6_13biomeos_graph8executor5testss_31test_execution_context_creation0B7_
FNDA:3,_RNvMs_NtCsJMpZlj22r6_13biomeos_graph8executorNtB4_13GraphExecutor14substitute_env
FNDA:1,_RNvMNtNtCsJMpZlj22r6_13biomeos_graph8executor5testsNtB2_18MockPrimalExecutor10with_delay
FNDA:1,_RNvMNtNtCsJMpZlj22r6_13biomeos_graph8executor5testsNtB2_18MockPrimalExecutor12with_failure
FNDA:1,_RNvMNtNtCsJMpZlj22r6_13biomeos_graph8executor5testsNtB2_18MockPrimalExecutor3new
FNDA:1,_RNvNtNtCsJMpZlj22r6_13biomeos_graph8executor5tests17create_test_graph
FNDA:1,_RNvNtNtCsJMpZlj22r6_13biomeos_graph8executor5testss_16test_node_status
FNDA:1,_RNvNtNtCsJMpZlj22r6_13biomeos_graph8executor5testss_19test_graph_creation
FNDA:1,_RNvNtNtCsJMpZlj22r6_13biomeos_graph8executor5testss_21test_env_substitution
FNDA:1,_RNvNtNtCsJMpZlj22r6_13biomeos_graph8executor5testss_23test_operation_creation
FNDA:1,_RNvNtNtCsJMpZlj22r6_13biomeos_graph8executor5testss_26test_mock_executor_failure
FNDA:1,_RNvNtNtCsJMpZlj22r6_13biomeos_graph8executor5testss_26test_mock_executor_success
FNDA:1,_RNvNtNtCsJMpZlj22r6_13biomeos_graph8executor5testss_26test_primal_selector_by_id
FNDA:1,_RNvNtNtCsJMpZlj22r6_13biomeos_graph8executor5testss_29test_env_substitution_no_vars
FNDA:1,_RNvNtNtCsJMpZlj22r6_13biomeos_graph8executor5testss_29test_mock_executor_with_delay
FNDA:1,_RNvNtNtCsJMpZlj22r6_13biomeos_graph8executor5testss_31test_execution_context_creation
FNDA:1,_RNvNtNtCsJMpZlj22r6_13biomeos_graph8executor5testss_33test_env_substitution_missing_var
FNDA:1,_RNvNtNtCsJMpZlj22r6_13biomeos_graph8executor5testss_34test_primal_selector_by_capability
FNDA:3,_RNvXs_NtNtCsJMpZlj22r6_13biomeos_graph8executor5testsNtB4_18MockPrimalExecutorNtB6_23PrimalOperationExecutor17execute_operation
FNF:75
FNH:22
DA:56,0
DA:57,0
DA:58,0
DA:59,0
DA:60,0
DA:61,0
DA:62,0
DA:63,0
DA:66,0
DA:67,0
DA:68,0
DA:69,0
DA:72,0
DA:73,0
DA:74,0
DA:75,0
DA:78,0
DA:79,0
DA:80,0
DA:81,0
DA:84,0
DA:85,0
DA:86,0
DA:87,0
DA:99,0
DA:100,0
DA:101,0
DA:102,0
DA:103,0
DA:104,0
DA:105,0
DA:108,0
DA:109,0
DA:111,0
DA:112,0
DA:115,0
DA:117,0
DA:120,0
DA:121,0
DA:122,0
DA:123,0
DA:124,0
DA:125,0
DA:128,0
DA:129,0
DA:130,0
DA:131,0
DA:132,0
DA:133,0
DA:134,0
DA:135,0
DA:138,0
DA:139,0
DA:140,0
DA:141,0
DA:143,0
DA:148,0
DA:150,0
DA:151,0
DA:153,0
DA:156,0
DA:157,0
DA:160,0
DA:161,0
DA:162,0
DA:165,0
DA:168,0
DA:170,0
DA:171,0
DA:172,0
DA:173,0
DA:174,0
DA:175,0
DA:176,0
DA:177,0
DA:179,0
DA:180,0
DA:182,0
DA:183,0
DA:184,0
DA:185,0
DA:186,0
DA:188,0
DA:192,0
DA:193,0
DA:195,0
DA:196,0
DA:197,0
DA:198,0
DA:199,0
DA:200,0
DA:201,0
DA:203,0
DA:204,0
DA:205,0
DA:206,0
DA:207,0
DA:208,0
DA:209,0
DA:214,0
DA:216,0
DA:217,0
DA:218,0
DA:220,0
DA:221,0
DA:224,0
DA:225,0
DA:226,0
DA:227,0
DA:228,0
DA:231,0
DA:234,0
DA:235,0
DA:236,0
DA:237,0
DA:238,0
DA:239,0
DA:240,0
DA:242,0
DA:243,0
DA:247,0
DA:248,0
DA:251,0
DA:252,0
DA:253,0
DA:254,0
DA:255,0
DA:256,0
DA:257,0
DA:258,0
DA:259,0
DA:262,0
DA:263,0
DA:265,0
DA:266,0
DA:267,0
DA:270,0
DA:271,0
DA:272,0
DA:273,0
DA:274,0
DA:276,0
DA:278,0
DA:279,0
DA:281,0
DA:282,0
DA:283,0
DA:284,0
DA:285,0
DA:288,0
DA:289,0
DA:290,0
DA:291,0
DA:295,0
DA:296,0
DA:297,0
DA:298,0
DA:299,0
DA:302,0
DA:303,0
DA:304,0
DA:305,0
DA:306,0
DA:308,0
DA:309,0
DA:310,0
DA:311,0
DA:312,0
DA:315,0
DA:316,0
DA:317,0
DA:318,0
DA:319,0
DA:323,0
DA:325,0
DA:326,0
DA:327,0
DA:329,0
DA:332,0
DA:333,0
DA:334,0
DA:335,0
DA:338,0
DA:339,0
DA:340,0
DA:341,0
DA:342,0
DA:343,0
DA:346,0
DA:347,0
DA:348,0
DA:349,0
DA:351,0
DA:352,0
DA:353,0
DA:354,0
DA:355,0
DA:358,0
DA:359,0
DA:360,0
DA:361,0
DA:363,0
DA:364,0
DA:365,0
DA:366,0
DA:367,0
DA:370,0
DA:371,0
DA:372,0
DA:373,0
DA:374,0
DA:375,0
DA:376,0
DA:377,0
DA:378,0
DA:379,0
DA:381,0
DA:382,0
DA:383,0
DA:384,0
DA:385,0
DA:386,0
DA:389,3
DA:390,3
DA:392,5
DA:393,2
DA:394,2
DA:395,2
DA:397,3
DA:398,3
DA:401,0
DA:402,0
DA:403,0
DA:406,0
DA:407,0
DA:409,0
DA:410,0
DA:411,0
DA:412,0
DA:413,0
DA:414,0
DA:415,0
DA:419,0
DA:420,0
DA:421,0
DA:422,0
DA:423,0
DA:424,0
DA:426,0
DA:427,0
DA:428,0
DA:430,0
DA:431,0
DA:432,0
DA:434,0
DA:435,0
DA:436,0
DA:437,0
DA:438,0
DA:439,0
DA:440,0
DA:441,0
DA:443,0
DA:444,0
DA:447,0
DA:448,0
DA:449,0
DA:453,0
DA:454,0
DA:455,0
DA:457,0
DA:458,0
DA:461,0
DA:462,0
DA:464,0
DA:465,0
DA:479,0
DA:480,0
DA:481,0
DA:482,0
DA:483,0
DA:484,0
DA:485,0
DA:486,0
DA:487,0
DA:501,0
DA:502,0
DA:503,0
DA:504,0
DA:505,0
DA:506,0
DA:507,0
DA:508,0
DA:509,0
DA:524,1
DA:525,1
DA:526,1
DA:527,1
DA:528,1
DA:529,1
DA:531,1
DA:532,1
DA:533,1
DA:534,1
DA:535,1
DA:536,1
DA:538,1
DA:539,1
DA:540,1
DA:541,1
DA:542,1
DA:543,1
DA:552,3
DA:566,3
DA:569,1
DA:570,1
DA:571,1
DA:572,1
DA:573,1
DA:574,1
DA:575,1
DA:576,1
DA:577,1
DA:578,1
DA:579,1
DA:580,1
DA:581,1
DA:582,1
DA:583,1
DA:584,1
DA:585,1
DA:586,1
DA:587,1
DA:588,1
DA:589,1
DA:590,1
DA:591,1
DA:592,1
DA:593,1
DA:594,1
DA:595,1
DA:596,1
DA:597,1
DA:598,1
DA:599,1
DA:600,1
DA:601,1
DA:602,1
DA:603,1
DA:604,1
DA:607,1
DA:608,1
DA:609,1
DA:610,1
DA:612,1
DA:613,1
DA:614,1
DA:617,1
DA:618,1
DA:619,1
DA:620,1
DA:621,1
DA:624,1
DA:625,1
DA:626,1
DA:627,1
DA:628,1
DA:631,1
DA:632,1
DA:633,1
DA:635,1
DA:636,1
DA:637,1
DA:638,0
DA:641,1
DA:642,1
DA:643,1
DA:644,0
DA:646,1
DA:649,1
DA:650,1
DA:651,1
DA:652,1
DA:653,1
DA:654,1
DA:655,1
DA:657,1
DA:658,1
DA:659,1
DA:662,1
DA:663,1
DA:664,1
DA:665,1
DA:666,1
DA:667,1
DA:669,1
DA:670,1
DA:671,1
DA:672,1
DA:674,1
DA:675,1
DA:676,1
DA:677,1
DA:680,1
DA:681,1
DA:682,1
DA:683,1
DA:684,1
DA:685,1
DA:687,1
DA:688,1
DA:689,1
DA:690,1
DA:693,1
DA:694,1
DA:695,1
DA:696,1
DA:697,1
DA:698,1
DA:700,1
DA:701,1
DA:702,1
DA:704,1
DA:705,1
DA:708,1
DA:709,1
DA:710,1
DA:711,1
DA:712,1
DA:713,1
DA:716,1
DA:717,1
DA:718,1
DA:719,1
DA:721,1
DA:722,1
DA:723,1
DA:725,0
DA:727,1
DA:730,1
DA:731,1
DA:732,1
DA:733,1
DA:735,1
DA:736,1
DA:737,1
DA:739,0
DA:741,1
DA:744,1
DA:745,1
DA:746,1
DA:747,1
DA:748,1
DA:750,1
DA:751,1
DA:752,1
BRF:0
BRH:0
LF:498
LH:174
end_of_record
SF:/home/eastgate/Development/ecoPrimals/phase2/biomeOS/crates/biomeos-graph/src/graph.rs
FN:140,_RNvMs_NtCsJMpZlj22r6_13biomeos_graph5graphNtB4_5Graph14from_toml_file
FN:279,_RNvNtNtCsJMpZlj22r6_13biomeos_graph5graph5testss_23test_parse_simple_graph
FN:39,_RNvMNtCsJMpZlj22r6_13biomeos_graph5graphNtB2_7GraphId6as_str
FN:146,_RNvMs_NtCsJMpZlj22r6_13biomeos_graph5graphNtB4_5Graph13from_toml_str
FN:262,_RNvXs0_NtCsJMpZlj22r6_13biomeos_graph5graphNtB5_11GraphConfigNtNtCs5GmCzIpY9Qj_4core7default7Default7default
FN:35,_RINvMNtCsJMpZlj22r6_13biomeos_graph5graphNtB3_7GraphId3newRNtNtCscmSb185pVu_5alloc6string6StringEB5_
FN:35,_RINvMNtCsJMpZlj22r6_13biomeos_graph5graphNtB3_7GraphId3newReEB5_
FN:153,_RNCNvMs_NtCsJMpZlj22r6_13biomeos_graph5graphNtB6_5Graph13from_toml_str0B8_
FN:158,_RNCNvMs_NtCsJMpZlj22r6_13biomeos_graph5graphNtB6_5Graph13from_toml_strs0_0B8_
FN:164,_RNCNvMs_NtCsJMpZlj22r6_13biomeos_graph5graphNtB6_5Graph13from_toml_strs1_0B8_
FN:170,_RNCNvMs_NtCsJMpZlj22r6_13biomeos_graph5graphNtB6_5Graph13from_toml_strs2_0B8_
FN:177,_RNCNvMs_NtCsJMpZlj22r6_13biomeos_graph5graphNtB6_5Graph13from_toml_strs3_0B8_
FN:178,_RNCNvMs_NtCsJMpZlj22r6_13biomeos_graph5graphNtB6_5Graph13from_toml_strs4_0B8_
FN:187,_RNCNvMs_NtCsJMpZlj22r6_13biomeos_graph5graphNtB6_5Graph13from_toml_strs5_0B8_
FN:191,_RNCNvMs_NtCsJMpZlj22r6_13biomeos_graph5graphNtB6_5Graph13from_toml_strs6_0B8_
FN:192,_RNCNvMs_NtCsJMpZlj22r6_13biomeos_graph5graphNtB6_5Graph13from_toml_strs7_0B8_
FN:196,_RNCNvMs_NtCsJMpZlj22r6_13biomeos_graph5graphNtB6_5Graph13from_toml_strs8_0B8_
FN:200,_RNCNvMs_NtCsJMpZlj22r6_13biomeos_graph5graphNtB6_5Graph13from_toml_strs9_0B8_
FN:154,_RNCNvMs_NtCsJMpZlj22r6_13biomeos_graph5graphNtB6_5Graph13from_toml_strs_0B8_
FN:204,_RNCNvMs_NtCsJMpZlj22r6_13biomeos_graph5graphNtB6_5Graph13from_toml_strsa_0B8_
FN:208,_RNCNvMs_NtCsJMpZlj22r6_13biomeos_graph5graphNtB6_5Graph13from_toml_strsb_0B8_
FN:212,_RNCNvMs_NtCsJMpZlj22r6_13biomeos_graph5graphNtB6_5Graph13from_toml_strsc_0B8_
FNDA:0,_RNvMs_NtCsJMpZlj22r6_13biomeos_graph5graphNtB4_5Graph14from_toml_file
FNDA:1,_RNvNtNtCsJMpZlj22r6_13biomeos_graph5graph5testss_23test_parse_simple_graph
FNDA:1,_RNvMNtCsJMpZlj22r6_13biomeos_graph5graphNtB2_7GraphId6as_str
FNDA:1,_RNvMs_NtCsJMpZlj22r6_13biomeos_graph5graphNtB4_5Graph13from_toml_str
FNDA:0,_RNvXs0_NtCsJMpZlj22r6_13biomeos_graph5graphNtB5_11GraphConfigNtNtCs5GmCzIpY9Qj_4core7default7Default7default
FNDA:5,_RINvMNtCsJMpZlj22r6_13biomeos_graph5graphNtB3_7GraphId3newRNtNtCscmSb185pVu_5alloc6string6StringEB5_
FNDA:33,_RINvMNtCsJMpZlj22r6_13biomeos_graph5graphNtB3_7GraphId3newReEB5_
FNDA:1,_RNCNvMs_NtCsJMpZlj22r6_13biomeos_graph5graphNtB6_5Graph13from_toml_str0B8_
FNDA:1,_RNCNvMs_NtCsJMpZlj22r6_13biomeos_graph5graphNtB6_5Graph13from_toml_strs0_0B8_
FNDA:1,_RNCNvMs_NtCsJMpZlj22r6_13biomeos_graph5graphNtB6_5Graph13from_toml_strs1_0B8_
FNDA:1,_RNCNvMs_NtCsJMpZlj22r6_13biomeos_graph5graphNtB6_5Graph13from_toml_strs2_0B8_
FNDA:1,_RNCNvMs_NtCsJMpZlj22r6_13biomeos_graph5graphNtB6_5Graph13from_toml_strs3_0B8_
FNDA:0,_RNCNvMs_NtCsJMpZlj22r6_13biomeos_graph5graphNtB6_5Graph13from_toml_strs4_0B8_
FNDA:1,_RNCNvMs_NtCsJMpZlj22r6_13biomeos_graph5graphNtB6_5Graph13from_toml_strs5_0B8_
FNDA:1,_RNCNvMs_NtCsJMpZlj22r6_13biomeos_graph5graphNtB6_5Graph13from_toml_strs6_0B8_
FNDA:1,_RNCNvMs_NtCsJMpZlj22r6_13biomeos_graph5graphNtB6_5Graph13from_toml_strs7_0B8_
FNDA:0,_RNCNvMs_NtCsJMpZlj22r6_13biomeos_graph5graphNtB6_5Graph13from_toml_strs8_0B8_
FNDA:1,_RNCNvMs_NtCsJMpZlj22r6_13biomeos_graph5graphNtB6_5Graph13from_toml_strs9_0B8_
FNDA:0,_RNCNvMs_NtCsJMpZlj22r6_13biomeos_graph5graphNtB6_5Graph13from_toml_strs_0B8_
FNDA:0,_RNCNvMs_NtCsJMpZlj22r6_13biomeos_graph5graphNtB6_5Graph13from_toml_strsa_0B8_
FNDA:0,_RNCNvMs_NtCsJMpZlj22r6_13biomeos_graph5graphNtB6_5Graph13from_toml_strsb_0B8_
FNDA:0,_RNCNvMs_NtCsJMpZlj22r6_13biomeos_graph5graphNtB6_5Graph13from_toml_strsc_0B8_
FNF:21
FNH:13
DA:35,38
DA:36,38
DA:37,38
DA:39,1
DA:40,1
DA:41,1
DA:140,0
DA:141,0
DA:142,0
DA:143,0
DA:146,1
DA:148,1
DA:151,1
DA:152,1
DA:153,1
DA:154,1
DA:156,1
DA:157,1
DA:158,1
DA:159,1
DA:160,1
DA:162,1
DA:163,1
DA:164,1
DA:165,1
DA:166,1
DA:168,1
DA:169,1
DA:170,1
DA:171,1
DA:172,1
DA:175,1
DA:176,1
DA:177,1
DA:178,1
DA:180,1
DA:181,3
DA:182,2
DA:183,2
DA:187,1
DA:189,1
DA:190,1
DA:191,1
DA:192,1
DA:193,1
DA:194,1
DA:195,1
DA:196,1
DA:197,1
DA:198,1
DA:199,1
DA:200,1
DA:201,1
DA:202,1
DA:203,1
DA:204,1
DA:205,1
DA:206,1
DA:207,1
DA:208,1
DA:209,1
DA:210,1
DA:211,1
DA:212,1
DA:213,1
DA:216,0
DA:219,1
DA:220,1
DA:221,1
DA:222,1
DA:223,1
DA:224,1
DA:225,1
DA:226,1
DA:262,0
DA:263,0
DA:264,0
DA:265,0
DA:266,0
DA:267,0
DA:268,0
DA:269,0
DA:270,0
DA:271,0
DA:279,1
DA:280,1
DA:281,1
DA:282,1
DA:283,1
DA:284,1
DA:285,1
DA:286,1
DA:287,1
DA:288,1
DA:289,1
DA:290,1
DA:291,1
DA:292,1
DA:293,1
DA:294,1
DA:295,1
DA:296,1
DA:297,1
DA:298,1
DA:299,1
DA:301,1
DA:302,1
DA:303,1
DA:304,1
DA:305,1
BRF:0
BRH:0
LF:125
LH:104
end_of_record
SF:/home/eastgate/Development/ecoPrimals/phase2/biomeOS/crates/biomeos-graph/src/metrics.rs
FN:368,_RNCNCNCNvMNtCsJMpZlj22r6_13biomeos_graph7metricsNtB8_16MetricsCollector21get_recent_executions0s_00Ba_
FN:369,_RNCNCNCNvMNtCsJMpZlj22r6_13biomeos_graph7metricsNtB8_16MetricsCollector21get_recent_executions0s_0s_0Ba_
FN:322,_RNCNCNvMNtCsJMpZlj22r6_13biomeos_graph7metricsNtB6_16MetricsCollector15find_bottleneck00B8_
FN:334,_RNCNCNvMNtCsJMpZlj22r6_13biomeos_graph7metricsNtB6_16MetricsCollector15find_bottleneck0s_0B8_
FN:284,_RNCNCNvMNtCsJMpZlj22r6_13biomeos_graph7metricsNtB6_16MetricsCollector16get_node_metrics00B8_
FN:295,_RNCNCNvMNtCsJMpZlj22r6_13biomeos_graph7metricsNtB6_16MetricsCollector16get_node_metrics0s_0B8_
FN:394,_RNCNCNvMNtCsJMpZlj22r6_13biomeos_graph7metricsNtB6_16MetricsCollector19cleanup_old_metrics00B8_
FN:355,_RNCNCNvMNtCsJMpZlj22r6_13biomeos_graph7metricsNtB6_16MetricsCollector21get_recent_executions00B8_
FN:365,_RNCNCNvMNtCsJMpZlj22r6_13biomeos_graph7metricsNtB6_16MetricsCollector21get_recent_executions0s_0B8_
FN:318,_RNCNvMNtCsJMpZlj22r6_13biomeos_graph7metricsNtB4_16MetricsCollector15find_bottleneck0B6_
FN:280,_RNCNvMNtCsJMpZlj22r6_13biomeos_graph7metricsNtB4_16MetricsCollector16get_node_metrics0B6_
FN:390,_RNCNvMNtCsJMpZlj22r6_13biomeos_graph7metricsNtB4_16MetricsCollector19cleanup_old_metrics0B6_
FN:351,_RNCNvMNtCsJMpZlj22r6_13biomeos_graph7metricsNtB4_16MetricsCollector21get_recent_executions0B6_
FN:318,_RNvMNtCsJMpZlj22r6_13biomeos_graph7metricsNtB2_16MetricsCollector15find_bottleneck
FN:280,_RNvMNtCsJMpZlj22r6_13biomeos_graph7metricsNtB2_16MetricsCollector16get_node_metrics
FN:390,_RNvMNtCsJMpZlj22r6_13biomeos_graph7metricsNtB2_16MetricsCollector19cleanup_old_metrics
FN:347,_RNvMNtCsJMpZlj22r6_13biomeos_graph7metricsNtB2_16MetricsCollector21get_recent_executions
FN:170,_RNvMNtCsJMpZlj22r6_13biomeos_graph7metricsNtB2_16MetricsCollector15store_execution
FN:227,_RNvMNtCsJMpZlj22r6_13biomeos_graph7metricsNtB2_16MetricsCollector17get_graph_metrics
FN:110,_RNvMNtCsJMpZlj22r6_13biomeos_graph7metricsNtB2_16MetricsCollector7init_db
FN:413,_RNCNvNtNtCsJMpZlj22r6_13biomeos_graph7metrics5testss_20test_metrics_storage0B7_
FN:413,_RNvNtNtCsJMpZlj22r6_13biomeos_graph7metrics5testss_20test_metrics_storage
FN:95,_RINvMNtCsJMpZlj22r6_13biomeos_graph7metricsNtB3_16MetricsCollector3newRNtNtCscKkwsb9kWaL_3std4path4PathEB5_
FN:95,_RNCINvMNtCsJMpZlj22r6_13biomeos_graph7metricsNtB5_16MetricsCollector3newRNtNtCscKkwsb9kWaL_3std4path4PathE0B7_
FN:260,_RNCNCNCNvMNtCsJMpZlj22r6_13biomeos_graph7metricsNtB8_16MetricsCollector17get_graph_metrics0s_00Ba_
FN:261,_RNCNCNCNvMNtCsJMpZlj22r6_13biomeos_graph7metricsNtB8_16MetricsCollector17get_graph_metrics0s_0s_0Ba_
FN:179,_RNCNCNvMNtCsJMpZlj22r6_13biomeos_graph7metricsNtB6_16MetricsCollector15store_execution00B8_
FN:231,_RNCNCNvMNtCsJMpZlj22r6_13biomeos_graph7metricsNtB6_16MetricsCollector17get_graph_metrics00B8_
FN:245,_RNCNCNvMNtCsJMpZlj22r6_13biomeos_graph7metricsNtB6_16MetricsCollector17get_graph_metrics0s_0B8_
FN:175,_RNCNvMNtCsJMpZlj22r6_13biomeos_graph7metricsNtB4_16MetricsCollector15store_execution0B6_
FN:227,_RNCNvMNtCsJMpZlj22r6_13biomeos_graph7metricsNtB4_16MetricsCollector17get_graph_metrics0B6_
FN:110,_RNCNvMNtCsJMpZlj22r6_13biomeos_graph7metricsNtB4_16MetricsCollector7init_db0B6_
FNDA:0,_RNCNCNCNvMNtCsJMpZlj22r6_13biomeos_graph7metricsNtB8_16MetricsCollector21get_recent_executions0s_00Ba_
FNDA:0,_RNCNCNCNvMNtCsJMpZlj22r6_13biomeos_graph7metricsNtB8_16MetricsCollector21get_recent_executions0s_0s_0Ba_
FNDA:0,_RNCNCNvMNtCsJMpZlj22r6_13biomeos_graph7metricsNtB6_16MetricsCollector15find_bottleneck00B8_
FNDA:0,_RNCNCNvMNtCsJMpZlj22r6_13biomeos_graph7metricsNtB6_16MetricsCollector15find_bottleneck0s_0B8_
FNDA:0,_RNCNCNvMNtCsJMpZlj22r6_13biomeos_graph7metricsNtB6_16MetricsCollector16get_node_metrics00B8_
FNDA:0,_RNCNCNvMNtCsJMpZlj22r6_13biomeos_graph7metricsNtB6_16MetricsCollector16get_node_metrics0s_0B8_
FNDA:0,_RNCNCNvMNtCsJMpZlj22r6_13biomeos_graph7metricsNtB6_16MetricsCollector19cleanup_old_metrics00B8_
FNDA:0,_RNCNCNvMNtCsJMpZlj22r6_13biomeos_graph7metricsNtB6_16MetricsCollector21get_recent_executions00B8_
FNDA:0,_RNCNCNvMNtCsJMpZlj22r6_13biomeos_graph7metricsNtB6_16MetricsCollector21get_recent_executions0s_0B8_
FNDA:0,_RNCNvMNtCsJMpZlj22r6_13biomeos_graph7metricsNtB4_16MetricsCollector15find_bottleneck0B6_
FNDA:0,_RNCNvMNtCsJMpZlj22r6_13biomeos_graph7metricsNtB4_16MetricsCollector16get_node_metrics0B6_
FNDA:0,_RNCNvMNtCsJMpZlj22r6_13biomeos_graph7metricsNtB4_16MetricsCollector19cleanup_old_metrics0B6_
FNDA:0,_RNCNvMNtCsJMpZlj22r6_13biomeos_graph7metricsNtB4_16MetricsCollector21get_recent_executions0B6_
FNDA:0,_RNvMNtCsJMpZlj22r6_13biomeos_graph7metricsNtB2_16MetricsCollector15find_bottleneck
FNDA:0,_RNvMNtCsJMpZlj22r6_13biomeos_graph7metricsNtB2_16MetricsCollector16get_node_metrics
FNDA:0,_RNvMNtCsJMpZlj22r6_13biomeos_graph7metricsNtB2_16MetricsCollector19cleanup_old_metrics
FNDA:0,_RNvMNtCsJMpZlj22r6_13biomeos_graph7metricsNtB2_16MetricsCollector21get_recent_executions
FNDA:1,_RNvMNtCsJMpZlj22r6_13biomeos_graph7metricsNtB2_16MetricsCollector15store_execution
FNDA:1,_RNvMNtCsJMpZlj22r6_13biomeos_graph7metricsNtB2_16MetricsCollector17get_graph_metrics
FNDA:1,_RNvMNtCsJMpZlj22r6_13biomeos_graph7metricsNtB2_16MetricsCollector7init_db
FNDA:1,_RNCNvNtNtCsJMpZlj22r6_13biomeos_graph7metrics5testss_20test_metrics_storage0B7_
FNDA:1,_RNvNtNtCsJMpZlj22r6_13biomeos_graph7metrics5testss_20test_metrics_storage
FNDA:1,_RINvMNtCsJMpZlj22r6_13biomeos_graph7metricsNtB3_16MetricsCollector3newRNtNtCscKkwsb9kWaL_3std4path4PathEB5_
FNDA:1,_RNCINvMNtCsJMpZlj22r6_13biomeos_graph7metricsNtB5_16MetricsCollector3newRNtNtCscKkwsb9kWaL_3std4path4PathE0B7_
FNDA:1,_RNCNCNCNvMNtCsJMpZlj22r6_13biomeos_graph7metricsNtB8_16MetricsCollector17get_graph_metrics0s_00Ba_
FNDA:0,_RNCNCNCNvMNtCsJMpZlj22r6_13biomeos_graph7metricsNtB8_16MetricsCollector17get_graph_metrics0s_0s_0Ba_
FNDA:0,_RNCNCNvMNtCsJMpZlj22r6_13biomeos_graph7metricsNtB6_16MetricsCollector15store_execution00B8_
FNDA:0,_RNCNCNvMNtCsJMpZlj22r6_13biomeos_graph7metricsNtB6_16MetricsCollector17get_graph_metrics00B8_
FNDA:1,_RNCNCNvMNtCsJMpZlj22r6_13biomeos_graph7metricsNtB6_16MetricsCollector17get_graph_metrics0s_0B8_
FNDA:1,_RNCNvMNtCsJMpZlj22r6_13biomeos_graph7metricsNtB4_16MetricsCollector15store_execution0B6_
FNDA:1,_RNCNvMNtCsJMpZlj22r6_13biomeos_graph7metricsNtB4_16MetricsCollector17get_graph_metrics0B6_
FNDA:1,_RNCNvMNtCsJMpZlj22r6_13biomeos_graph7metricsNtB4_16MetricsCollector7init_db0B6_
FNF:32
FNH:12
DA:95,1
DA:96,1
DA:98,1
DA:99,1
DA:100,1
DA:101,1
DA:104,1
DA:106,1
DA:107,1
DA:110,1
DA:111,1
DA:112,1
DA:115,1
DA:116,1
DA:117,1
DA:118,1
DA:119,1
DA:120,1
DA:121,1
DA:122,1
DA:123,1
DA:124,1
DA:125,0
DA:128,1
DA:129,1
DA:130,1
DA:131,1
DA:132,1
DA:133,1
DA:134,1
DA:135,1
DA:136,1
DA:137,1
DA:138,1
DA:139,1
DA:140,1
DA:141,1
DA:142,1
DA:143,0
DA:146,1
DA:147,1
DA:148,1
DA:149,1
DA:150,0
DA:152,1
DA:153,1
DA:154,1
DA:155,1
DA:156,0
DA:158,1
DA:159,1
DA:160,1
DA:161,1
DA:162,0
DA:164,1
DA:166,1
DA:167,1
DA:170,1
DA:171,1
DA:172,1
DA:173,1
DA:174,1
DA:175,1
DA:176,1
DA:177,1
DA:178,1
DA:179,1
DA:181,1
DA:182,1
DA:185,1
DA:186,1
DA:187,1
DA:188,1
DA:189,1
DA:193,1
DA:194,1
DA:196,0
DA:198,1
DA:202,1
DA:203,1
DA:204,0
DA:205,0
DA:206,0
DA:207,0
DA:208,0
DA:209,0
DA:211,0
DA:220,0
DA:223,1
DA:224,1
DA:227,1
DA:228,1
DA:229,1
DA:230,1
DA:231,1
DA:233,1
DA:234,1
DA:235,1
DA:236,1
DA:237,1
DA:238,1
DA:239,1
DA:240,1
DA:241,1
DA:242,1
DA:243,0
DA:245,1
DA:246,1
DA:248,1
DA:249,0
DA:250,1
DA:252,1
DA:253,1
DA:254,1
DA:255,1
DA:256,1
DA:257,1
DA:259,1
DA:260,1
DA:261,1
DA:263,1
DA:264,1
DA:265,1
DA:266,1
DA:267,1
DA:268,1
DA:269,1
DA:270,1
DA:271,1
DA:272,1
DA:273,1
DA:274,1
DA:276,1
DA:277,1
DA:280,0
DA:281,0
DA:282,0
DA:283,0
DA:284,0
DA:286,0
DA:287,0
DA:288,0
DA:289,0
DA:290,0
DA:291,0
DA:292,0
DA:293,0
DA:295,0
DA:296,0
DA:298,0
DA:299,0
DA:300,0
DA:302,0
DA:303,0
DA:305,0
DA:306,0
DA:307,0
DA:308,0
DA:309,0
DA:310,0
DA:311,0
DA:312,0
DA:314,0
DA:315,0
DA:318,0
DA:319,0
DA:320,0
DA:321,0
DA:322,0
DA:324,0
DA:325,0
DA:326,0
DA:327,0
DA:328,0
DA:329,0
DA:330,0
DA:331,0
DA:332,0
DA:334,0
DA:335,0
DA:336,0
DA:337,0
DA:338,0
DA:339,0
DA:340,0
DA:343,0
DA:344,0
DA:347,0
DA:348,0
DA:349,0
DA:350,0
DA:351,0
DA:352,0
DA:353,0
DA:354,0
DA:355,0
DA:357,0
DA:358,0
DA:359,0
DA:360,0
DA:361,0
DA:362,0
DA:363,0
DA:365,0
DA:366,0
DA:367,0
DA:368,0
DA:369,0
DA:372,0
DA:373,0
DA:374,0
DA:375,0
DA:376,0
DA:377,0
DA:379,0
DA:381,0
DA:382,0
DA:383,0
DA:386,0
DA:387,0
DA:390,0
DA:391,0
DA:392,0
DA:393,0
DA:394,0
DA:396,0
DA:398,0
DA:399,0
DA:400,0
DA:401,0
DA:403,0
DA:404,0
DA:413,1
DA:414,1
DA:415,1
DA:418,1
DA:419,1
DA:420,1
DA:421,1
DA:422,1
DA:423,1
DA:426,1
DA:427,1
DA:428,1
DA:429,1
DA:431,1
DA:434,1
DA:435,1
DA:437,1
DA:438,1
DA:439,1
DA:440,1
BRF:0
BRH:0
LF:279
LH:146
end_of_record
SF:/home/eastgate/Development/ecoPrimals/phase2/biomeOS/crates/biomeos-graph/src/modification.rs
FN:269,_RNCNvMs_NtCsJMpZlj22r6_13biomeos_graph12modificationNtB6_24GraphModificationHandler14apply_add_edge0B8_
FN:278,_RNCNvMs_NtCsJMpZlj22r6_13biomeos_graph12modificationNtB6_24GraphModificationHandler14apply_add_edges0_0B8_
FN:273,_RNCNvMs_NtCsJMpZlj22r6_13biomeos_graph12modificationNtB6_24GraphModificationHandler14apply_add_edges_0B8_
FN:177,_RNCNvMs_NtCsJMpZlj22r6_13biomeos_graph12modificationNtB6_24GraphModificationHandler14apply_add_node0B8_
FN:313,_RNCNvMs_NtCsJMpZlj22r6_13biomeos_graph12modificationNtB6_24GraphModificationHandler14validate_graph0B8_
FN:248,_RNCNvMs_NtCsJMpZlj22r6_13biomeos_graph12modificationNtB6_24GraphModificationHandler17apply_modify_node0B8_
FN:249,_RNCNvMs_NtCsJMpZlj22r6_13biomeos_graph12modificationNtB6_24GraphModificationHandler17apply_modify_nodes_0B8_
FN:300,_RNCNvMs_NtCsJMpZlj22r6_13biomeos_graph12modificationNtB6_24GraphModificationHandler17apply_remove_edge0B8_
FN:306,_RNCNvMs_NtCsJMpZlj22r6_13biomeos_graph12modificationNtB6_24GraphModificationHandler17apply_remove_edges_0B8_
FN:201,_RNCNvMs_NtCsJMpZlj22r6_13biomeos_graph12modificationNtB6_24GraphModificationHandler17apply_remove_node0B8_
FN:208,_RNCNvMs_NtCsJMpZlj22r6_13biomeos_graph12modificationNtB6_24GraphModificationHandler17apply_remove_nodes0_0B8_
FN:209,_RNCNvMs_NtCsJMpZlj22r6_13biomeos_graph12modificationNtB6_24GraphModificationHandler17apply_remove_nodes1_0B8_
FN:215,_RNCNvMs_NtCsJMpZlj22r6_13biomeos_graph12modificationNtB6_24GraphModificationHandler17apply_remove_nodes2_0B8_
FN:216,_RNCNvMs_NtCsJMpZlj22r6_13biomeos_graph12modificationNtB6_24GraphModificationHandler17apply_remove_nodes3_0B8_
FN:228,_RNCNvMs_NtCsJMpZlj22r6_13biomeos_graph12modificationNtB6_24GraphModificationHandler17apply_remove_nodes4_0B8_
FN:202,_RNCNvMs_NtCsJMpZlj22r6_13biomeos_graph12modificationNtB6_24GraphModificationHandler17apply_remove_nodes_0B8_
FN:505,_RNCNvNtNtCsJMpZlj22r6_13biomeos_graph12modification5testss_13test_add_edge0B7_
FN:392,_RNvNtNtCsJMpZlj22r6_13biomeos_graph12modification5tests16create_test_node
FN:407,_RNvNtNtCsJMpZlj22r6_13biomeos_graph12modification5tests17create_test_graph
FN:487,_RNvNtNtCsJMpZlj22r6_13biomeos_graph12modification5testss_13test_add_edge
FN:424,_RNvNtNtCsJMpZlj22r6_13biomeos_graph12modification5testss_13test_add_node
FN:509,_RNvNtNtCsJMpZlj22r6_13biomeos_graph12modification5testss_16test_remove_edge
FN:452,_RNvNtNtCsJMpZlj22r6_13biomeos_graph12modification5testss_16test_remove_node
FN:524,_RNvNtNtCsJMpZlj22r6_13biomeos_graph12modification5testss_20test_cycle_detection
FN:540,_RNvNtNtCsJMpZlj22r6_13biomeos_graph12modification5testss_24test_batch_modifications
FN:569,_RNvNtNtCsJMpZlj22r6_13biomeos_graph12modification5testss_24test_change_coordination
FN:469,_RNvNtNtCsJMpZlj22r6_13biomeos_graph12modification5testss_26test_modify_node_operation
FN:439,_RNvNtNtCsJMpZlj22r6_13biomeos_graph12modification5testss_29test_add_duplicate_node_fails
FN:67,_RNvMNtCsJMpZlj22r6_13biomeos_graph12modificationNtB2_18ModificationResult7failure
FN:58,_RNvMNtCsJMpZlj22r6_13biomeos_graph12modificationNtB2_18ModificationResult7success
FN:136,_RNvMs_NtCsJMpZlj22r6_13biomeos_graph12modificationNtB4_24GraphModificationHandler11apply_batch
FN:361,_RNvMs_NtCsJMpZlj22r6_13biomeos_graph12modificationNtB4_24GraphModificationHandler13has_cycle_dfs
FN:261,_RNvMs_NtCsJMpZlj22r6_13biomeos_graph12modificationNtB4_24GraphModificationHandler14apply_add_edge
FN:171,_RNvMs_NtCsJMpZlj22r6_13biomeos_graph12modificationNtB4_24GraphModificationHandler14apply_add_node
FN:311,_RNvMs_NtCsJMpZlj22r6_13biomeos_graph12modificationNtB4_24GraphModificationHandler14validate_graph
FN:330,_RNvMs_NtCsJMpZlj22r6_13biomeos_graph12modificationNtB4_24GraphModificationHandler16check_for_cycles
FN:237,_RNvMs_NtCsJMpZlj22r6_13biomeos_graph12modificationNtB4_24GraphModificationHandler17apply_modify_node
FN:293,_RNvMs_NtCsJMpZlj22r6_13biomeos_graph12modificationNtB4_24GraphModificationHandler17apply_remove_edge
FN:192,_RNvMs_NtCsJMpZlj22r6_13biomeos_graph12modificationNtB4_24GraphModificationHandler17apply_remove_node
FN:82,_RNvMs_NtCsJMpZlj22r6_13biomeos_graph12modificationNtB4_24GraphModificationHandler5apply
FNDA:4,_RNCNvMs_NtCsJMpZlj22r6_13biomeos_graph12modificationNtB6_24GraphModificationHandler14apply_add_edge0B8_
FNDA:2,_RNCNvMs_NtCsJMpZlj22r6_13biomeos_graph12modificationNtB6_24GraphModificationHandler14apply_add_edges0_0B8_
FNDA:6,_RNCNvMs_NtCsJMpZlj22r6_13biomeos_graph12modificationNtB6_24GraphModificationHandler14apply_add_edges_0B8_
FNDA:5,_RNCNvMs_NtCsJMpZlj22r6_13biomeos_graph12modificationNtB6_24GraphModificationHandler14apply_add_node0B8_
FNDA:24,_RNCNvMs_NtCsJMpZlj22r6_13biomeos_graph12modificationNtB6_24GraphModificationHandler14validate_graph0B8_
FNDA:2,_RNCNvMs_NtCsJMpZlj22r6_13biomeos_graph12modificationNtB6_24GraphModificationHandler17apply_modify_node0B8_
FNDA:0,_RNCNvMs_NtCsJMpZlj22r6_13biomeos_graph12modificationNtB6_24GraphModificationHandler17apply_modify_nodes_0B8_
FNDA:1,_RNCNvMs_NtCsJMpZlj22r6_13biomeos_graph12modificationNtB6_24GraphModificationHandler17apply_remove_edge0B8_
FNDA:1,_RNCNvMs_NtCsJMpZlj22r6_13biomeos_graph12modificationNtB6_24GraphModificationHandler17apply_remove_edges_0B8_
FNDA:2,_RNCNvMs_NtCsJMpZlj22r6_13biomeos_graph12modificationNtB6_24GraphModificationHandler17apply_remove_node0B8_
FNDA:1,_RNCNvMs_NtCsJMpZlj22r6_13biomeos_graph12modificationNtB6_24GraphModificationHandler17apply_remove_nodes0_0B8_
FNDA:1,_RNCNvMs_NtCsJMpZlj22r6_13biomeos_graph12modificationNtB6_24GraphModificationHandler17apply_remove_nodes1_0B8_
FNDA:1,_RNCNvMs_NtCsJMpZlj22r6_13biomeos_graph12modificationNtB6_24GraphModificationHandler17apply_remove_nodes2_0B8_
FNDA:0,_RNCNvMs_NtCsJMpZlj22r6_13biomeos_graph12modificationNtB6_24GraphModificationHandler17apply_remove_nodes3_0B8_
FNDA:1,_RNCNvMs_NtCsJMpZlj22r6_13biomeos_graph12modificationNtB6_24GraphModificationHandler17apply_remove_nodes4_0B8_
FNDA:0,_RNCNvMs_NtCsJMpZlj22r6_13biomeos_graph12modificationNtB6_24GraphModificationHandler17apply_remove_nodes_0B8_
FNDA:2,_RNCNvNtNtCsJMpZlj22r6_13biomeos_graph12modification5testss_13test_add_edge0B7_
FNDA:22,_RNvNtNtCsJMpZlj22r6_13biomeos_graph12modification5tests16create_test_node
FNDA:9,_RNvNtNtCsJMpZlj22r6_13biomeos_graph12modification5tests17create_test_graph
FNDA:1,_RNvNtNtCsJMpZlj22r6_13biomeos_graph12modification5testss_13test_add_edge
FNDA:1,_RNvNtNtCsJMpZlj22r6_13biomeos_graph12modification5testss_13test_add_node
FNDA:1,_RNvNtNtCsJMpZlj22r6_13biomeos_graph12modification5testss_16test_remove_edge
FNDA:1,_RNvNtNtCsJMpZlj22r6_13biomeos_graph12modification5testss_16test_remove_node
FNDA:1,_RNvNtNtCsJMpZlj22r6_13biomeos_graph12modification5testss_20test_cycle_detection
FNDA:1,_RNvNtNtCsJMpZlj22r6_13biomeos_graph12modification5testss_24test_batch_modifications
FNDA:1,_RNvNtNtCsJMpZlj22r6_13biomeos_graph12modification5testss_24test_change_coordination
FNDA:1,_RNvNtNtCsJMpZlj22r6_13biomeos_graph12modification5testss_26test_modify_node_operation
FNDA:1,_RNvNtNtCsJMpZlj22r6_13biomeos_graph12modification5testss_29test_add_duplicate_node_fails
FNDA:0,_RNvMNtCsJMpZlj22r6_13biomeos_graph12modificationNtB2_18ModificationResult7failure
FNDA:10,_RNvMNtCsJMpZlj22r6_13biomeos_graph12modificationNtB2_18ModificationResult7success
FNDA:1,_RNvMs_NtCsJMpZlj22r6_13biomeos_graph12modificationNtB4_24GraphModificationHandler11apply_batch
FNDA:24,_RNvMs_NtCsJMpZlj22r6_13biomeos_graph12modificationNtB4_24GraphModificationHandler13has_cycle_dfs
FNDA:2,_RNvMs_NtCsJMpZlj22r6_13biomeos_graph12modificationNtB4_24GraphModificationHandler14apply_add_edge
FNDA:3,_RNvMs_NtCsJMpZlj22r6_13biomeos_graph12modificationNtB4_24GraphModificationHandler14apply_add_node
FNDA:10,_RNvMs_NtCsJMpZlj22r6_13biomeos_graph12modificationNtB4_24GraphModificationHandler14validate_graph
FNDA:10,_RNvMs_NtCsJMpZlj22r6_13biomeos_graph12modificationNtB4_24GraphModificationHandler16check_for_cycles
FNDA:2,_RNvMs_NtCsJMpZlj22r6_13biomeos_graph12modificationNtB4_24GraphModificationHandler17apply_modify_node
FNDA:1,_RNvMs_NtCsJMpZlj22r6_13biomeos_graph12modificationNtB4_24GraphModificationHandler17apply_remove_edge
FNDA:1,_RNvMs_NtCsJMpZlj22r6_13biomeos_graph12modificationNtB4_24GraphModificationHandler17apply_remove_node
FNDA:10,_RNvMs_NtCsJMpZlj22r6_13biomeos_graph12modificationNtB4_24GraphModificationHandler5apply
FNF:40
FNH:36
DA:58,10
DA:59,10
DA:60,10
DA:61,10
DA:62,10
DA:63,10
DA:64,10
DA:65,10
DA:67,0
DA:68,0
DA:69,0
DA:70,0
DA:71,0
DA:72,0
DA:73,0
DA:74,0
DA:82,10
DA:83,10
DA:84,10
DA:85,10
DA:86,10
DA:87,10
DA:89,10
DA:90,3
DA:91,3
DA:94,1
DA:95,1
DA:99,2
DA:100,2
DA:101,2
DA:103,2
DA:104,2
DA:105,2
DA:106,2
DA:107,2
DA:108,2
DA:109,0
DA:113,2
DA:114,2
DA:115,2
DA:117,2
DA:120,1
DA:121,1
DA:124,1
DA:125,1
DA:126,1
DA:130,9
DA:132,9
DA:133,10
DA:136,1
DA:137,1
DA:138,1
DA:139,1
DA:140,1
DA:141,1
DA:143,3
DA:144,3
DA:145,3
DA:146,3
DA:147,3
DA:148,3
DA:149,3
DA:150,0
DA:151,0
DA:152,0
DA:153,0
DA:154,0
DA:157,0
DA:158,0
DA:159,0
DA:160,0
DA:161,0
DA:166,1
DA:167,1
DA:171,3
DA:172,3
DA:173,3
DA:174,3
DA:175,3
DA:177,5
DA:178,1
DA:179,2
DA:182,2
DA:184,2
DA:185,0
DA:186,0
DA:187,2
DA:189,2
DA:190,3
DA:192,1
DA:193,1
DA:194,1
DA:195,1
DA:196,1
DA:198,1
DA:199,1
DA:200,1
DA:201,2
DA:202,1
DA:205,1
DA:206,1
DA:207,1
DA:208,1
DA:209,1
DA:210,1
DA:212,1
DA:213,1
DA:214,1
DA:215,1
DA:216,1
DA:217,1
DA:219,1
DA:220,1
DA:221,1
DA:223,1
DA:224,1
DA:228,1
DA:229,0
DA:232,1
DA:234,1
DA:235,1
DA:237,2
DA:238,2
DA:239,2
DA:240,2
DA:241,2
DA:242,2
DA:243,2
DA:245,2
DA:246,2
DA:247,2
DA:248,2
DA:249,2
DA:252,2
DA:254,2
DA:255,1
DA:256,1
DA:258,2
DA:259,2
DA:261,2
DA:262,2
DA:263,2
DA:264,2
DA:265,2
DA:266,2
DA:267,2
DA:269,4
DA:270,0
DA:271,2
DA:273,6
DA:274,0
DA:275,2
DA:278,2
DA:279,0
DA:280,0
DA:281,2
DA:284,2
DA:285,2
DA:286,2
DA:287,2
DA:288,2
DA:290,2
DA:291,2
DA:293,1
DA:294,1
DA:295,1
DA:296,1
DA:297,1
DA:298,1
DA:300,1
DA:301,0
DA:302,0
DA:303,1
DA:306,1
DA:308,1
DA:309,1
DA:311,10
DA:313,24
DA:315,22
DA:316,12
DA:317,0
DA:318,12
DA:319,12
DA:320,0
DA:321,12
DA:325,10
DA:327,9
DA:328,10
DA:330,10
DA:332,10
DA:334,34
DA:335,24
DA:336,24
DA:338,22
DA:339,12
DA:340,12
DA:341,12
DA:342,12
DA:343,12
DA:347,10
DA:348,10
DA:350,32
DA:351,23
DA:352,13
DA:353,1
DA:354,12
DA:355,10
DA:358,9
DA:359,10
DA:361,24
DA:362,24
DA:363,24
DA:364,24
DA:365,24
DA:366,24
DA:367,24
DA:368,24
DA:370,24
DA:371,34
DA:372,12
DA:373,11
DA:374,1
DA:375,10
DA:376,1
DA:377,1
DA:378,0
DA:380,0
DA:382,22
DA:383,22
DA:384,24
DA:392,22
DA:393,22
DA:394,22
DA:395,22
DA:396,22
DA:397,22
DA:398,22
DA:399,22
DA:400,22
DA:401,22
DA:402,22
DA:403,22
DA:404,22
DA:405,22
DA:407,9
DA:408,9
DA:409,9
DA:410,9
DA:411,9
DA:412,9
DA:413,9
DA:414,9
DA:415,9
DA:416,9
DA:417,9
DA:418,9
DA:419,9
DA:420,9
DA:421,9
DA:424,1
DA:425,1
DA:426,1
DA:428,1
DA:430,1
DA:431,1
DA:433,1
DA:434,1
DA:435,1
DA:436,1
DA:439,1
DA:440,1
DA:441,1
DA:443,1
DA:444,1
DA:445,1
DA:447,1
DA:448,1
DA:449,1
DA:452,1
DA:453,1
DA:454,1
DA:455,1
DA:456,1
DA:458,1
DA:459,1
DA:461,1
DA:462,1
DA:463,1
DA:465,1
DA:466,1
DA:469,1
DA:470,1
DA:471,1
DA:472,1
DA:473,1
DA:474,1
DA:475,1
DA:477,1
DA:478,1
DA:480,1
DA:481,1
DA:482,1
DA:483,1
DA:484,1
DA:487,1
DA:488,1
DA:489,1
DA:491,1
DA:492,1
DA:493,1
DA:494,1
DA:495,1
DA:497,1
DA:498,1
DA:500,1
DA:501,1
DA:502,1
DA:503,1
DA:504,1
DA:505,2
DA:506,1
DA:509,1
DA:510,1
DA:511,1
DA:512,1
DA:513,1
DA:514,1
DA:516,1
DA:517,1
DA:519,1
DA:520,1
DA:521,1
DA:524,1
DA:525,1
DA:528,1
DA:529,1
DA:530,1
DA:531,1
DA:532,1
DA:534,1
DA:535,1
DA:536,1
DA:537,1
DA:540,1
DA:541,1
DA:543,1
DA:544,1
DA:545,1
DA:546,1
DA:547,1
DA:548,1
DA:549,1
DA:550,1
DA:551,1
DA:552,1
DA:553,1
DA:554,1
DA:555,1
DA:556,1
DA:559,1
DA:560,1
DA:562,1
DA:563,1
DA:564,1
DA:565,1
DA:566,1
DA:569,1
DA:570,1
DA:571,1
DA:572,1
DA:573,1
DA:575,1
DA:576,1
DA:578,1
DA:579,1
DA:580,1
DA:583,1
BRF:0
BRH:0
LF:394
LH:359
end_of_record
SF:/home/eastgate/Development/ecoPrimals/phase2/biomeOS/crates/biomeos-graph/src/parser.rs
FN:227,_RNCNCNvMNtCsJMpZlj22r6_13biomeos_graph6parserNtB6_11GraphParser17parse_constraintss3_00B8_
FN:23,_RNCNvMNtCsJMpZlj22r6_13biomeos_graph6parserNtB4_11GraphParser10parse_file0B6_
FN:210,_RNCNvMNtCsJMpZlj22r6_13biomeos_graph6parserNtB4_11GraphParser17parse_constraints0B6_
FN:215,_RNCNvMNtCsJMpZlj22r6_13biomeos_graph6parserNtB4_11GraphParser17parse_constraintss0_0B6_
FN:219,_RNCNvMNtCsJMpZlj22r6_13biomeos_graph6parserNtB4_11GraphParser17parse_constraintss1_0B6_
FN:224,_RNCNvMNtCsJMpZlj22r6_13biomeos_graph6parserNtB4_11GraphParser17parse_constraintss2_0B6_
FN:225,_RNCNvMNtCsJMpZlj22r6_13biomeos_graph6parserNtB4_11GraphParser17parse_constraintss3_0B6_
FN:214,_RNCNvMNtCsJMpZlj22r6_13biomeos_graph6parserNtB4_11GraphParser17parse_constraintss_0B6_
FN:242,_RNCNvMNtCsJMpZlj22r6_13biomeos_graph6parserNtB4_11GraphParser18parse_retry_policy0B6_
FN:247,_RNCNvMNtCsJMpZlj22r6_13biomeos_graph6parserNtB4_11GraphParser18parse_retry_policys0_0B6_
FN:252,_RNCNvMNtCsJMpZlj22r6_13biomeos_graph6parserNtB4_11GraphParser18parse_retry_policys1_0B6_
FN:253,_RNCNvMNtCsJMpZlj22r6_13biomeos_graph6parserNtB4_11GraphParser18parse_retry_policys2_0B6_
FN:246,_RNCNvMNtCsJMpZlj22r6_13biomeos_graph6parserNtB4_11GraphParser18parse_retry_policys_0B6_
FN:22,_RNvMNtCsJMpZlj22r6_13biomeos_graph6parserNtB2_11GraphParser10parse_file
FN:207,_RNvMNtCsJMpZlj22r6_13biomeos_graph6parserNtB2_11GraphParser17parse_constraints
FN:239,_RNvMNtCsJMpZlj22r6_13biomeos_graph6parserNtB2_11GraphParser18parse_retry_policy
FN:310,_RNvMNtCsJMpZlj22r6_13biomeos_graph6parserNtB2_11GraphParser10get_string
FN:279,_RNvMNtCsJMpZlj22r6_13biomeos_graph6parserNtB2_11GraphParser10parse_edge
FN:102,_RNvMNtCsJMpZlj22r6_13biomeos_graph6parserNtB2_11GraphParser10parse_node
FN:31,_RNvMNtCsJMpZlj22r6_13biomeos_graph6parserNtB2_11GraphParser10parse_toml
FN:263,_RNvMNtCsJMpZlj22r6_13biomeos_graph6parserNtB2_11GraphParser11parse_edges
FN:83,_RNvMNtCsJMpZlj22r6_13biomeos_graph6parserNtB2_11GraphParser11parse_nodes
FN:179,_RNvMNtCsJMpZlj22r6_13biomeos_graph6parserNtB2_11GraphParser15parse_operation
FN:64,_RNvMNtCsJMpZlj22r6_13biomeos_graph6parserNtB2_11GraphParser18parse_coordination
FN:318,_RNvMNtCsJMpZlj22r6_13biomeos_graph6parserNtB2_11GraphParser19get_optional_string
FN:131,_RNvMNtCsJMpZlj22r6_13biomeos_graph6parserNtB2_11GraphParser21parse_primal_selector
FN:116,_RNCNCNvMNtCsJMpZlj22r6_13biomeos_graph6parserNtB6_11GraphParser10parse_nodes0_00B8_
FN:159,_RNCNCNvMNtCsJMpZlj22r6_13biomeos_graph6parserNtB6_11GraphParser21parse_primal_selectors0_00B8_
FN:164,_RNCNCNvMNtCsJMpZlj22r6_13biomeos_graph6parserNtB6_11GraphParser21parse_primal_selectors0_0s_0B8_
FN:313,_RNCNvMNtCsJMpZlj22r6_13biomeos_graph6parserNtB4_11GraphParser10get_string0B6_
FN:315,_RNCNvMNtCsJMpZlj22r6_13biomeos_graph6parserNtB4_11GraphParser10get_strings0_0B6_
FN:314,_RNCNvMNtCsJMpZlj22r6_13biomeos_graph6parserNtB4_11GraphParser10get_strings_0B6_
FN:282,_RNCNvMNtCsJMpZlj22r6_13biomeos_graph6parserNtB4_11GraphParser10parse_edge0B6_
FN:105,_RNCNvMNtCsJMpZlj22r6_13biomeos_graph6parserNtB4_11GraphParser10parse_node0B6_
FN:114,_RNCNvMNtCsJMpZlj22r6_13biomeos_graph6parserNtB4_11GraphParser10parse_nodes0_0B6_
FN:113,_RNCNvMNtCsJMpZlj22r6_13biomeos_graph6parserNtB4_11GraphParser10parse_nodes_0B6_
FN:37,_RNCNvMNtCsJMpZlj22r6_13biomeos_graph6parserNtB4_11GraphParser10parse_toml0B6_
FN:43,_RNCNvMNtCsJMpZlj22r6_13biomeos_graph6parserNtB4_11GraphParser10parse_tomls0_0B6_
FN:38,_RNCNvMNtCsJMpZlj22r6_13biomeos_graph6parserNtB4_11GraphParser10parse_tomls_0B6_
FN:264,_RNCNvMNtCsJMpZlj22r6_13biomeos_graph6parserNtB4_11GraphParser11parse_edges0B6_
FN:274,_RNCNvMNtCsJMpZlj22r6_13biomeos_graph6parserNtB4_11GraphParser11parse_edgess_0B6_
FN:86,_RNCNvMNtCsJMpZlj22r6_13biomeos_graph6parserNtB4_11GraphParser11parse_nodes0B6_
FN:97,_RNCNvMNtCsJMpZlj22r6_13biomeos_graph6parserNtB4_11GraphParser11parse_nodess0_0B6_
FN:87,_RNCNvMNtCsJMpZlj22r6_13biomeos_graph6parserNtB4_11GraphParser11parse_nodess_0B6_
FN:182,_RNCNvMNtCsJMpZlj22r6_13biomeos_graph6parserNtB4_11GraphParser15parse_operation0B6_
FN:196,_RNCNvMNtCsJMpZlj22r6_13biomeos_graph6parserNtB4_11GraphParser15parse_operations0_0B6_
FN:186,_RNCNvMNtCsJMpZlj22r6_13biomeos_graph6parserNtB4_11GraphParser15parse_operations_0B6_
FN:68,_RNCNvMNtCsJMpZlj22r6_13biomeos_graph6parserNtB4_11GraphParser18parse_coordination0B6_
FN:324,_RNCNvMNtCsJMpZlj22r6_13biomeos_graph6parserNtB4_11GraphParser19get_optional_string0B6_
FN:325,_RNCNvMNtCsJMpZlj22r6_13biomeos_graph6parserNtB4_11GraphParser19get_optional_strings_0B6_
FN:136,_RNCNvMNtCsJMpZlj22r6_13biomeos_graph6parserNtB4_11GraphParser21parse_primal_selector0B6_
FN:157,_RNCNvMNtCsJMpZlj22r6_13biomeos_graph6parserNtB4_11GraphParser21parse_primal_selectors0_0B6_
FN:140,_RNCNvMNtCsJMpZlj22r6_13biomeos_graph6parserNtB4_11GraphParser21parse_primal_selectors_0B6_
FN:334,_RNvNtNtCsJMpZlj22r6_13biomeos_graph6parser5testss_24test_parse_minimal_graph
FN:373,_RNvNtNtCsJMpZlj22r6_13biomeos_graph6parser5testss_24test_parse_with_parallel
FN:400,_RNvNtNtCsJMpZlj22r6_13biomeos_graph6parser5testss_26test_missing_graph_section
FN:352,_RNvNtNtCsJMpZlj22r6_13biomeos_graph6parser5testss_35test_parse_with_capability_selector
FNDA:0,_RNCNCNvMNtCsJMpZlj22r6_13biomeos_graph6parserNtB6_11GraphParser17parse_constraintss3_00B8_
FNDA:0,_RNCNvMNtCsJMpZlj22r6_13biomeos_graph6parserNtB4_11GraphParser10parse_file0B6_
FNDA:0,_RNCNvMNtCsJMpZlj22r6_13biomeos_graph6parserNtB4_11GraphParser17parse_constraints0B6_
FNDA:0,_RNCNvMNtCsJMpZlj22r6_13biomeos_graph6parserNtB4_11GraphParser17parse_constraintss0_0B6_
FNDA:0,_RNCNvMNtCsJMpZlj22r6_13biomeos_graph6parserNtB4_11GraphParser17parse_constraintss1_0B6_
FNDA:0,_RNCNvMNtCsJMpZlj22r6_13biomeos_graph6parserNtB4_11GraphParser17parse_constraintss2_0B6_
FNDA:0,_RNCNvMNtCsJMpZlj22r6_13biomeos_graph6parserNtB4_11GraphParser17parse_constraintss3_0B6_
FNDA:0,_RNCNvMNtCsJMpZlj22r6_13biomeos_graph6parserNtB4_11GraphParser17parse_constraintss_0B6_
FNDA:0,_RNCNvMNtCsJMpZlj22r6_13biomeos_graph6parserNtB4_11GraphParser18parse_retry_policy0B6_
FNDA:0,_RNCNvMNtCsJMpZlj22r6_13biomeos_graph6parserNtB4_11GraphParser18parse_retry_policys0_0B6_
FNDA:0,_RNCNvMNtCsJMpZlj22r6_13biomeos_graph6parserNtB4_11GraphParser18parse_retry_policys1_0B6_
FNDA:0,_RNCNvMNtCsJMpZlj22r6_13biomeos_graph6parserNtB4_11GraphParser18parse_retry_policys2_0B6_
FNDA:0,_RNCNvMNtCsJMpZlj22r6_13biomeos_graph6parserNtB4_11GraphParser18parse_retry_policys_0B6_
FNDA:0,_RNvMNtCsJMpZlj22r6_13biomeos_graph6parserNtB2_11GraphParser10parse_file
FNDA:0,_RNvMNtCsJMpZlj22r6_13biomeos_graph6parserNtB2_11GraphParser17parse_constraints
FNDA:0,_RNvMNtCsJMpZlj22r6_13biomeos_graph6parserNtB2_11GraphParser18parse_retry_policy
FNDA:11,_RNvMNtCsJMpZlj22r6_13biomeos_graph6parserNtB2_11GraphParser10get_string
FNDA:0,_RNvMNtCsJMpZlj22r6_13biomeos_graph6parserNtB2_11GraphParser10parse_edge
FNDA:4,_RNvMNtCsJMpZlj22r6_13biomeos_graph6parserNtB2_11GraphParser10parse_node
FNDA:4,_RNvMNtCsJMpZlj22r6_13biomeos_graph6parserNtB2_11GraphParser10parse_toml
FNDA:3,_RNvMNtCsJMpZlj22r6_13biomeos_graph6parserNtB2_11GraphParser11parse_edges
FNDA:3,_RNvMNtCsJMpZlj22r6_13biomeos_graph6parserNtB2_11GraphParser11parse_nodes
FNDA:4,_RNvMNtCsJMpZlj22r6_13biomeos_graph6parserNtB2_11GraphParser15parse_operation
FNDA:3,_RNvMNtCsJMpZlj22r6_13biomeos_graph6parserNtB2_11GraphParser18parse_coordination
FNDA:17,_RNvMNtCsJMpZlj22r6_13biomeos_graph6parserNtB2_11GraphParser19get_optional_string
FNDA:4,_RNvMNtCsJMpZlj22r6_13biomeos_graph6parserNtB2_11GraphParser21parse_primal_selector
FNDA:0,_RNCNCNvMNtCsJMpZlj22r6_13biomeos_graph6parserNtB6_11GraphParser10parse_nodes0_00B8_
FNDA:0,_RNCNCNvMNtCsJMpZlj22r6_13biomeos_graph6parserNtB6_11GraphParser21parse_primal_selectors0_00B8_
FNDA:0,_RNCNCNvMNtCsJMpZlj22r6_13biomeos_graph6parserNtB6_11GraphParser21parse_primal_selectors0_0s_0B8_
FNDA:11,_RNCNvMNtCsJMpZlj22r6_13biomeos_graph6parserNtB4_11GraphParser10get_string0B6_
FNDA:0,_RNCNvMNtCsJMpZlj22r6_13biomeos_graph6parserNtB4_11GraphParser10get_strings0_0B6_
FNDA:11,_RNCNvMNtCsJMpZlj22r6_13biomeos_graph6parserNtB4_11GraphParser10get_strings_0B6_
FNDA:0,_RNCNvMNtCsJMpZlj22r6_13biomeos_graph6parserNtB4_11GraphParser10parse_edge0B6_
FNDA:0,_RNCNvMNtCsJMpZlj22r6_13biomeos_graph6parserNtB4_11GraphParser10parse_node0B6_
FNDA:0,_RNCNvMNtCsJMpZlj22r6_13biomeos_graph6parserNtB4_11GraphParser10parse_nodes0_0B6_
FNDA:0,_RNCNvMNtCsJMpZlj22r6_13biomeos_graph6parserNtB4_11GraphParser10parse_nodes_0B6_
FNDA:3,_RNCNvMNtCsJMpZlj22r6_13biomeos_graph6parserNtB4_11GraphParser10parse_toml0B6_
FNDA:3,_RNCNvMNtCsJMpZlj22r6_13biomeos_graph6parserNtB4_11GraphParser10parse_tomls0_0B6_
FNDA:1,_RNCNvMNtCsJMpZlj22r6_13biomeos_graph6parserNtB4_11GraphParser10parse_tomls_0B6_
FNDA:0,_RNCNvMNtCsJMpZlj22r6_13biomeos_graph6parserNtB4_11GraphParser11parse_edges0B6_
FNDA:0,_RNCNvMNtCsJMpZlj22r6_13biomeos_graph6parserNtB4_11GraphParser11parse_edgess_0B6_
FNDA:3,_RNCNvMNtCsJMpZlj22r6_13biomeos_graph6parserNtB4_11GraphParser11parse_nodes0B6_
FNDA:4,_RNCNvMNtCsJMpZlj22r6_13biomeos_graph6parserNtB4_11GraphParser11parse_nodess0_0B6_
FNDA:0,_RNCNvMNtCsJMpZlj22r6_13biomeos_graph6parserNtB4_11GraphParser11parse_nodess_0B6_
FNDA:0,_RNCNvMNtCsJMpZlj22r6_13biomeos_graph6parserNtB4_11GraphParser15parse_operation0B6_
FNDA:0,_RNCNvMNtCsJMpZlj22r6_13biomeos_graph6parserNtB4_11GraphParser15parse_operations0_0B6_
FNDA:0,_RNCNvMNtCsJMpZlj22r6_13biomeos_graph6parserNtB4_11GraphParser15parse_operations_0B6_
FNDA:2,_RNCNvMNtCsJMpZlj22r6_13biomeos_graph6parserNtB4_11GraphParser18parse_coordination0B6_
FNDA:5,_RNCNvMNtCsJMpZlj22r6_13biomeos_graph6parserNtB4_11GraphParser19get_optional_string0B6_
FNDA:5,_RNCNvMNtCsJMpZlj22r6_13biomeos_graph6parserNtB4_11GraphParser19get_optional_strings_0B6_
FNDA:0,_RNCNvMNtCsJMpZlj22r6_13biomeos_graph6parserNtB4_11GraphParser21parse_primal_selector0B6_
FNDA:0,_RNCNvMNtCsJMpZlj22r6_13biomeos_graph6parserNtB4_11GraphParser21parse_primal_selectors0_0B6_
FNDA:0,_RNCNvMNtCsJMpZlj22r6_13biomeos_graph6parserNtB4_11GraphParser21parse_primal_selectors_0B6_
FNDA:1,_RNvNtNtCsJMpZlj22r6_13biomeos_graph6parser5testss_24test_parse_minimal_graph
FNDA:1,_RNvNtNtCsJMpZlj22r6_13biomeos_graph6parser5testss_24test_parse_with_parallel
FNDA:1,_RNvNtNtCsJMpZlj22r6_13biomeos_graph6parser5testss_26test_missing_graph_section
FNDA:1,_RNvNtNtCsJMpZlj22r6_13biomeos_graph6parser5testss_35test_parse_with_capability_selector
FNF:57
FNH:23
DA:22,0
DA:23,0
DA:24,0
DA:25,0
DA:27,0
DA:28,0
DA:31,4
DA:32,4
DA:35,4
DA:36,4
DA:37,4
DA:38,4
DA:40,3
DA:41,3
DA:42,3
DA:43,3
DA:44,3
DA:47,3
DA:50,3
DA:52,3
DA:53,3
DA:54,3
DA:55,3
DA:56,3
DA:57,3
DA:58,3
DA:59,3
DA:60,3
DA:61,4
DA:64,3
DA:65,3
DA:66,3
DA:67,3
DA:68,3
DA:70,3
DA:71,3
DA:72,1
DA:73,0
DA:74,0
DA:75,0
DA:76,0
DA:77,0
DA:78,0
DA:80,3
DA:83,3
DA:84,3
DA:85,3
DA:86,3
DA:87,3
DA:89,3
DA:90,0
DA:91,0
DA:92,0
DA:93,3
DA:95,3
DA:96,3
DA:97,4
DA:98,3
DA:99,3
DA:102,4
DA:103,4
DA:104,4
DA:105,4
DA:107,4
DA:108,4
DA:109,4
DA:111,4
DA:112,4
DA:113,4
DA:114,4
DA:115,0
DA:116,0
DA:117,0
DA:118,0
DA:119,4
DA:121,4
DA:122,4
DA:123,4
DA:124,4
DA:125,4
DA:126,4
DA:127,4
DA:128,4
DA:131,4
DA:132,4
DA:133,4
DA:134,4
DA:135,4
DA:136,4
DA:138,4
DA:139,4
DA:140,4
DA:143,4
DA:144,0
DA:145,4
DA:148,4
DA:149,4
DA:150,0
DA:153,0
DA:154,0
DA:155,0
DA:156,0
DA:157,0
DA:158,0
DA:159,0
DA:160,0
DA:161,0
DA:162,0
DA:163,0
DA:164,0
DA:165,0
DA:166,0
DA:168,0
DA:170,0
DA:171,0
DA:173,0
DA:174,0
DA:175,0
DA:176,4
DA:179,4
DA:180,4
DA:181,4
DA:182,4
DA:184,4
DA:185,4
DA:186,4
DA:188,4
DA:190,4
DA:191,4
DA:192,4
DA:193,4
DA:196,4
DA:197,0
DA:198,0
DA:200,4
DA:201,4
DA:202,4
DA:203,4
DA:204,4
DA:207,0
DA:208,0
DA:209,0
DA:210,0
DA:212,0
DA:213,0
DA:214,0
DA:215,0
DA:217,0
DA:218,0
DA:219,0
DA:220,0
DA:222,0
DA:223,0
DA:224,0
DA:225,0
DA:226,0
DA:227,0
DA:228,0
DA:229,0
DA:231,0
DA:232,0
DA:233,0
DA:234,0
DA:235,0
DA:236,0
DA:239,0
DA:240,0
DA:241,0
DA:242,0
DA:244,0
DA:245,0
DA:246,0
DA:247,0
DA:250,0
DA:251,0
DA:252,0
DA:253,0
DA:256,0
DA:257,0
DA:258,0
DA:259,0
DA:260,0
DA:263,3
DA:264,3
DA:267,3
DA:268,3
DA:269,0
DA:271,0
DA:272,0
DA:273,0
DA:274,0
DA:275,0
DA:276,3
DA:279,0
DA:280,0
DA:281,0
DA:282,0
DA:284,0
DA:285,0
DA:287,0
DA:288,0
DA:289,0
DA:290,0
DA:291,0
DA:292,0
DA:295,0
DA:298,0
DA:301,0
DA:302,0
DA:303,0
DA:304,0
DA:305,0
DA:306,0
DA:310,11
DA:311,11
DA:312,11
DA:313,11
DA:314,11
DA:315,11
DA:316,11
DA:318,17
DA:319,17
DA:320,17
DA:321,17
DA:322,17
DA:323,17
DA:324,17
DA:325,17
DA:326,17
DA:334,1
DA:335,1
DA:336,1
DA:337,1
DA:338,1
DA:339,1
DA:340,1
DA:341,1
DA:342,1
DA:343,1
DA:345,1
DA:346,1
DA:347,1
DA:348,1
DA:349,1
DA:352,1
DA:353,1
DA:354,1
DA:355,1
DA:356,1
DA:357,1
DA:358,1
DA:359,1
DA:360,1
DA:361,1
DA:363,1
DA:364,1
DA:365,1
DA:366,1
DA:368,0
DA:370,1
DA:373,1
DA:374,1
DA:375,1
DA:376,1
DA:377,1
DA:378,1
DA:379,1
DA:380,1
DA:381,1
DA:382,1
DA:383,1
DA:384,1
DA:385,1
DA:386,1
DA:387,1
DA:388,1
DA:389,1
DA:390,1
DA:392,1
DA:393,1
DA:396,1
DA:397,1
DA:400,1
DA:401,1
DA:402,1
DA:403,1
DA:404,1
DA:405,1
DA:406,1
DA:408,1
DA:409,1
DA:410,1
BRF:0
BRH:0
LF:334
LH:189
end_of_record
SF:/home/eastgate/Development/ecoPrimals/phase2/biomeOS/crates/biomeos-graph/src/templates.rs
FN:279,_RNCNCNvMs0_NtCsJMpZlj22r6_13biomeos_graph9templatesNtB9_22NestGateTemplateClient8discover00Bb_
FN:102,_RNCNvMNtCsJMpZlj22r6_13biomeos_graph9templatesNtB4_20GraphTemplateManager17discover_nestgate0B6_
FN:274,_RNCNvMs0_NtCsJMpZlj22r6_13biomeos_graph9templatesNtB7_22NestGateTemplateClient8discover0B9_
FN:102,_RNvMNtCsJMpZlj22r6_13biomeos_graph9templatesNtB2_20GraphTemplateManager17discover_nestgate
FN:274,_RNvMs0_NtCsJMpZlj22r6_13biomeos_graph9templatesNtB5_22NestGateTemplateClient8discover
FN:261,_RNvXs_NtCsJMpZlj22r6_13biomeos_graph9templatesNtB4_20GraphTemplateManagerNtNtCs5GmCzIpY9Qj_4core7default7Default7default
FN:148,_RNvMNtCsJMpZlj22r6_13biomeos_graph9templatesNtB2_20GraphTemplateManager13load_template
FN:126,_RNvMNtCsJMpZlj22r6_13biomeos_graph9templatesNtB2_20GraphTemplateManager13save_template
FN:171,_RNvMNtCsJMpZlj22r6_13biomeos_graph9templatesNtB2_20GraphTemplateManager14list_templates
FN:190,_RNvMNtCsJMpZlj22r6_13biomeos_graph9templatesNtB2_20GraphTemplateManager15delete_template
FN:245,_RNvMNtCsJMpZlj22r6_13biomeos_graph9templatesNtB2_20GraphTemplateManager16apply_parameters
FN:227,_RNvMNtCsJMpZlj22r6_13biomeos_graph9templatesNtB2_20GraphTemplateManager19validate_parameters
FN:204,_RNvMNtCsJMpZlj22r6_13biomeos_graph9templatesNtB2_20GraphTemplateManager20instantiate_template
FN:94,_RNvMNtCsJMpZlj22r6_13biomeos_graph9templatesNtB2_20GraphTemplateManager3new
FN:311,_RNvMs0_NtCsJMpZlj22r6_13biomeos_graph9templatesNtB5_22NestGateTemplateClient14list_templates
FN:288,_RNvMs0_NtCsJMpZlj22r6_13biomeos_graph9templatesNtB5_22NestGateTemplateClient14store_template
FN:322,_RNvMs0_NtCsJMpZlj22r6_13biomeos_graph9templatesNtB5_22NestGateTemplateClient15delete_template
FN:300,_RNvMs0_NtCsJMpZlj22r6_13biomeos_graph9templatesNtB5_22NestGateTemplateClient17retrieve_template
FN:341,_RNvNtNtCsJMpZlj22r6_13biomeos_graph9templates5tests20create_test_template
FN:399,_RNvNtNtCsJMpZlj22r6_13biomeos_graph9templates5testss_19test_list_templates
FN:413,_RNvNtNtCsJMpZlj22r6_13biomeos_graph9templates5testss_20test_delete_template
FN:425,_RNvNtNtCsJMpZlj22r6_13biomeos_graph9templates5testss_25test_instantiate_template
FN:385,_RNvNtNtCsJMpZlj22r6_13biomeos_graph9templates5testss_27test_save_and_load_template
FN:445,_RNvNtNtCsJMpZlj22r6_13biomeos_graph9templates5testss_29test_template_with_parameters
FN:379,_RNvNtNtCsJMpZlj22r6_13biomeos_graph9templates5testss_30test_template_manager_creation
FN:481,_RNvNtNtCsJMpZlj22r6_13biomeos_graph9templates5testss_33test_parameter_type_serialization
FN:399,_RNCNvNtNtCsJMpZlj22r6_13biomeos_graph9templates5testss_19test_list_templates0B7_
FN:413,_RNCNvNtNtCsJMpZlj22r6_13biomeos_graph9templates5testss_20test_delete_template0B7_
FN:425,_RNCNvNtNtCsJMpZlj22r6_13biomeos_graph9templates5testss_25test_instantiate_template0B7_
FN:385,_RNCNvNtNtCsJMpZlj22r6_13biomeos_graph9templates5testss_27test_save_and_load_template0B7_
FN:445,_RNCNvNtNtCsJMpZlj22r6_13biomeos_graph9templates5testss_29test_template_with_parameters0B7_
FN:379,_RNCNvNtNtCsJMpZlj22r6_13biomeos_graph9templates5testss_30test_template_manager_creation0B7_
FN:148,_RNCNvMNtCsJMpZlj22r6_13biomeos_graph9templatesNtB4_20GraphTemplateManager13load_template0B6_
FN:126,_RNCNvMNtCsJMpZlj22r6_13biomeos_graph9templatesNtB4_20GraphTemplateManager13save_template0B6_
FN:171,_RNCNvMNtCsJMpZlj22r6_13biomeos_graph9templatesNtB4_20GraphTemplateManager14list_templates0B6_
FN:190,_RNCNvMNtCsJMpZlj22r6_13biomeos_graph9templatesNtB4_20GraphTemplateManager15delete_template0B6_
FN:208,_RNCNvMNtCsJMpZlj22r6_13biomeos_graph9templatesNtB4_20GraphTemplateManager20instantiate_template0B6_
FN:311,_RNCNvMs0_NtCsJMpZlj22r6_13biomeos_graph9templatesNtB7_22NestGateTemplateClient14list_templates0B9_
FN:288,_RNCNvMs0_NtCsJMpZlj22r6_13biomeos_graph9templatesNtB7_22NestGateTemplateClient14store_template0B9_
FN:322,_RNCNvMs0_NtCsJMpZlj22r6_13biomeos_graph9templatesNtB7_22NestGateTemplateClient15delete_template0B9_
FN:300,_RNCNvMs0_NtCsJMpZlj22r6_13biomeos_graph9templatesNtB7_22NestGateTemplateClient17retrieve_template0B9_
FNDA:0,_RNCNCNvMs0_NtCsJMpZlj22r6_13biomeos_graph9templatesNtB9_22NestGateTemplateClient8discover00Bb_
FNDA:0,_RNCNvMNtCsJMpZlj22r6_13biomeos_graph9templatesNtB4_20GraphTemplateManager17discover_nestgate0B6_
FNDA:0,_RNCNvMs0_NtCsJMpZlj22r6_13biomeos_graph9templatesNtB7_22NestGateTemplateClient8discover0B9_
FNDA:0,_RNvMNtCsJMpZlj22r6_13biomeos_graph9templatesNtB2_20GraphTemplateManager17discover_nestgate
FNDA:0,_RNvMs0_NtCsJMpZlj22r6_13biomeos_graph9templatesNtB5_22NestGateTemplateClient8discover
FNDA:0,_RNvXs_NtCsJMpZlj22r6_13biomeos_graph9templatesNtB4_20GraphTemplateManagerNtNtCs5GmCzIpY9Qj_4core7default7Default7default
FNDA:5,_RNvMNtCsJMpZlj22r6_13biomeos_graph9templatesNtB2_20GraphTemplateManager13load_template
FNDA:6,_RNvMNtCsJMpZlj22r6_13biomeos_graph9templatesNtB2_20GraphTemplateManager13save_template
FNDA:1,_RNvMNtCsJMpZlj22r6_13biomeos_graph9templatesNtB2_20GraphTemplateManager14list_templates
FNDA:1,_RNvMNtCsJMpZlj22r6_13biomeos_graph9templatesNtB2_20GraphTemplateManager15delete_template
FNDA:2,_RNvMNtCsJMpZlj22r6_13biomeos_graph9templatesNtB2_20GraphTemplateManager16apply_parameters
FNDA:3,_RNvMNtCsJMpZlj22r6_13biomeos_graph9templatesNtB2_20GraphTemplateManager19validate_parameters
FNDA:3,_RNvMNtCsJMpZlj22r6_13biomeos_graph9templatesNtB2_20GraphTemplateManager20instantiate_template
FNDA:6,_RNvMNtCsJMpZlj22r6_13biomeos_graph9templatesNtB2_20GraphTemplateManager3new
FNDA:0,_RNvMs0_NtCsJMpZlj22r6_13biomeos_graph9templatesNtB5_22NestGateTemplateClient14list_templates
FNDA:0,_RNvMs0_NtCsJMpZlj22r6_13biomeos_graph9templatesNtB5_22NestGateTemplateClient14store_template
FNDA:0,_RNvMs0_NtCsJMpZlj22r6_13biomeos_graph9templatesNtB5_22NestGateTemplateClient15delete_template
FNDA:0,_RNvMs0_NtCsJMpZlj22r6_13biomeos_graph9templatesNtB5_22NestGateTemplateClient17retrieve_template
FNDA:6,_RNvNtNtCsJMpZlj22r6_13biomeos_graph9templates5tests20create_test_template
FNDA:1,_RNvNtNtCsJMpZlj22r6_13biomeos_graph9templates5testss_19test_list_templates
FNDA:1,_RNvNtNtCsJMpZlj22r6_13biomeos_graph9templates5testss_20test_delete_template
FNDA:1,_RNvNtNtCsJMpZlj22r6_13biomeos_graph9templates5testss_25test_instantiate_template
FNDA:1,_RNvNtNtCsJMpZlj22r6_13biomeos_graph9templates5testss_27test_save_and_load_template
FNDA:1,_RNvNtNtCsJMpZlj22r6_13biomeos_graph9templates5testss_29test_template_with_parameters
FNDA:1,_RNvNtNtCsJMpZlj22r6_13biomeos_graph9templates5testss_30test_template_manager_creation
FNDA:1,_RNvNtNtCsJMpZlj22r6_13biomeos_graph9templates5testss_33test_parameter_type_serialization
FNDA:1,_RNCNvNtNtCsJMpZlj22r6_13biomeos_graph9templates5testss_19test_list_templates0B7_
FNDA:1,_RNCNvNtNtCsJMpZlj22r6_13biomeos_graph9templates5testss_20test_delete_template0B7_
FNDA:1,_RNCNvNtNtCsJMpZlj22r6_13biomeos_graph9templates5testss_25test_instantiate_template0B7_
FNDA:1,_RNCNvNtNtCsJMpZlj22r6_13biomeos_graph9templates5testss_27test_save_and_load_template0B7_
FNDA:1,_RNCNvNtNtCsJMpZlj22r6_13biomeos_graph9templates5testss_29test_template_with_parameters0B7_
FNDA:1,_RNCNvNtNtCsJMpZlj22r6_13biomeos_graph9templates5testss_30test_template_manager_creation0B7_
FNDA:5,_RNCNvMNtCsJMpZlj22r6_13biomeos_graph9templatesNtB4_20GraphTemplateManager13load_template0B6_
FNDA:6,_RNCNvMNtCsJMpZlj22r6_13biomeos_graph9templatesNtB4_20GraphTemplateManager13save_template0B6_
FNDA:1,_RNCNvMNtCsJMpZlj22r6_13biomeos_graph9templatesNtB4_20GraphTemplateManager14list_templates0B6_
FNDA:1,_RNCNvMNtCsJMpZlj22r6_13biomeos_graph9templatesNtB4_20GraphTemplateManager15delete_template0B6_
FNDA:3,_RNCNvMNtCsJMpZlj22r6_13biomeos_graph9templatesNtB4_20GraphTemplateManager20instantiate_template0B6_
FNDA:0,_RNCNvMs0_NtCsJMpZlj22r6_13biomeos_graph9templatesNtB7_22NestGateTemplateClient14list_templates0B9_
FNDA:0,_RNCNvMs0_NtCsJMpZlj22r6_13biomeos_graph9templatesNtB7_22NestGateTemplateClient14store_template0B9_
FNDA:0,_RNCNvMs0_NtCsJMpZlj22r6_13biomeos_graph9templatesNtB7_22NestGateTemplateClient15delete_template0B9_
FNDA:0,_RNCNvMs0_NtCsJMpZlj22r6_13biomeos_graph9templatesNtB7_22NestGateTemplateClient17retrieve_template0B9_
FNF:41
FNH:27
DA:94,6
DA:95,6
DA:96,6
DA:97,6
DA:98,6
DA:99,6
DA:102,0
DA:106,0
DA:109,0
DA:110,0
DA:111,0
DA:112,0
DA:113,0
DA:115,0
DA:116,0
DA:117,0
DA:120,0
DA:123,0
DA:126,6
DA:128,6
DA:129,6
DA:130,6
DA:131,6
DA:134,6
DA:135,0
DA:136,0
DA:138,6
DA:139,0
DA:144,6
DA:145,6
DA:148,5
DA:150,5
DA:151,4
DA:152,1
DA:155,1
DA:156,0
DA:159,0
DA:160,0
DA:161,0
DA:162,0
DA:164,0
DA:165,1
DA:167,1
DA:168,5
DA:171,1
DA:173,1
DA:174,0
DA:177,0
DA:178,0
DA:179,0
DA:180,0
DA:182,0
DA:183,1
DA:186,1
DA:187,1
DA:190,1
DA:192,1
DA:195,1
DA:196,0
DA:197,0
DA:198,1
DA:200,1
DA:201,1
DA:204,3
DA:205,3
DA:206,3
DA:207,3
DA:208,3
DA:209,3
DA:212,3
DA:215,2
DA:218,2
DA:221,2
DA:223,2
DA:224,3
DA:227,3
DA:228,3
DA:229,3
DA:230,3
DA:231,3
DA:233,4
DA:234,2
DA:235,1
DA:236,1
DA:241,2
DA:242,3
DA:245,2
DA:246,2
DA:247,2
DA:248,2
DA:249,2
DA:250,2
DA:256,2
DA:257,2
DA:261,0
DA:262,0
DA:263,0
DA:274,0
DA:278,0
DA:279,0
DA:284,0
DA:285,0
DA:288,0
DA:293,0
DA:296,0
DA:297,0
DA:300,0
DA:304,0
DA:307,0
DA:308,0
DA:311,0
DA:315,0
DA:318,0
DA:319,0
DA:322,0
DA:326,0
DA:329,0
DA:330,0
DA:341,6
DA:343,6
DA:344,6
DA:345,6
DA:346,6
DA:347,6
DA:348,6
DA:349,6
DA:350,6
DA:351,6
DA:352,6
DA:353,6
DA:354,6
DA:355,6
DA:356,6
DA:357,6
DA:358,6
DA:359,6
DA:360,6
DA:361,6
DA:362,6
DA:364,6
DA:365,6
DA:366,6
DA:367,6
DA:368,6
DA:369,6
DA:370,6
DA:371,6
DA:372,6
DA:373,6
DA:374,6
DA:375,6
DA:376,6
DA:379,1
DA:380,1
DA:381,1
DA:382,1
DA:385,1
DA:386,1
DA:387,1
DA:390,1
DA:393,1
DA:394,1
DA:395,1
DA:396,1
DA:399,1
DA:400,1
DA:401,1
DA:402,1
DA:403,1
DA:405,1
DA:406,1
DA:408,1
DA:409,1
DA:410,1
DA:413,1
DA:414,1
DA:415,1
DA:417,1
DA:418,1
DA:421,1
DA:422,1
DA:425,1
DA:426,1
DA:427,1
DA:429,1
DA:432,1
DA:433,1
DA:434,1
DA:435,1
DA:438,1
DA:441,1
DA:442,1
DA:445,1
DA:446,1
DA:447,1
DA:450,1
DA:451,1
DA:452,1
DA:453,1
DA:454,1
DA:455,1
DA:456,1
DA:457,1
DA:458,1
DA:461,1
DA:464,1
DA:465,1
DA:466,1
DA:467,1
DA:470,1
DA:471,1
DA:473,1
DA:474,1
DA:475,1
DA:476,1
DA:477,1
DA:478,1
DA:481,1
DA:482,1
DA:483,1
DA:484,1
DA:485,1
DA:486,1
DA:487,1
DA:488,1
DA:490,1
DA:491,1
DA:493,1
DA:494,1
BRF:0
BRH:0
LF:253
LH:193
end_of_record
SF:/home/eastgate/Development/ecoPrimals/phase2/biomeOS/crates/biomeos-graph/src/validation.rs
FN:135,_RINvMs2_NtCsJMpZlj22r6_13biomeos_graph10validationNtB6_20ValidationSuggestion9with_nodepEB8_
FN:171,_RNvMs3_NtCsJMpZlj22r6_13biomeos_graph10validationNtB5_22EnhancedGraphValidator27without_availability_checks
FN:535,_RNvXs4_NtCsJMpZlj22r6_13biomeos_graph10validationNtB5_22EnhancedGraphValidatorNtNtCs5GmCzIpY9Qj_4core7default7Default7default
FN:67,_RNvXs_NtCsJMpZlj22r6_13biomeos_graph10validationNtB4_16ValidationReportNtNtCs5GmCzIpY9Qj_4core7default7Default7default
FN:600,_RNCNvNtNtCsJMpZlj22r6_13biomeos_graph10validation5testss_16test_empty_graph0B7_
FN:648,_RNCNvNtNtCsJMpZlj22r6_13biomeos_graph10validation5testss_20test_cycle_detection0B7_
FN:663,_RNCNvNtNtCsJMpZlj22r6_13biomeos_graph10validation5testss_22test_self_loop_warning0B7_
FN:612,_RNCNvNtNtCsJMpZlj22r6_13biomeos_graph10validation5testss_23test_duplicate_node_ids0B7_
FN:676,_RNCNvNtNtCsJMpZlj22r6_13biomeos_graph10validation5testss_27test_empty_capability_error0B7_
FN:631,_RNCNvNtNtCsJMpZlj22r6_13biomeos_graph10validation5testss_27test_invalid_edge_reference0B7_
FN:691,_RNCNvNtNtCsJMpZlj22r6_13biomeos_graph10validation5testss_31test_parallelization_suggestion0B7_
FN:61,_RNvMNtCsJMpZlj22r6_13biomeos_graph10validationNtB2_16ValidationReport10has_issues
FN:52,_RNvMNtCsJMpZlj22r6_13biomeos_graph10validationNtB2_16ValidationReport11add_warning
FN:56,_RNvMNtCsJMpZlj22r6_13biomeos_graph10validationNtB2_16ValidationReport14add_suggestion
FN:37,_RNvMNtCsJMpZlj22r6_13biomeos_graph10validationNtB2_16ValidationReport3new
FN:47,_RNvMNtCsJMpZlj22r6_13biomeos_graph10validationNtB2_16ValidationReport9add_error
FN:306,_RNvMs3_NtCsJMpZlj22r6_13biomeos_graph10validationNtB5_22EnhancedGraphValidator14validate_edges
FN:238,_RNvMs3_NtCsJMpZlj22r6_13biomeos_graph10validationNtB5_22EnhancedGraphValidator14validate_nodes
FN:472,_RNvMs3_NtCsJMpZlj22r6_13biomeos_graph10validationNtB5_22EnhancedGraphValidator16dfs_chain_length
FN:446,_RNvMs3_NtCsJMpZlj22r6_13biomeos_graph10validationNtB5_22EnhancedGraphValidator18find_longest_chain
FN:341,_RNvMs3_NtCsJMpZlj22r6_13biomeos_graph10validationNtB5_22EnhancedGraphValidator18validate_no_cycles
FN:204,_RNvMs3_NtCsJMpZlj22r6_13biomeos_graph10validationNtB5_22EnhancedGraphValidator18validate_structure
FN:263,_RNvMs3_NtCsJMpZlj22r6_13biomeos_graph10validationNtB5_22EnhancedGraphValidator24validate_primal_selector
FN:413,_RNvMs3_NtCsJMpZlj22r6_13biomeos_graph10validationNtB5_22EnhancedGraphValidator27add_performance_suggestions
FN:499,_RNvMs3_NtCsJMpZlj22r6_13biomeos_graph10validationNtB5_22EnhancedGraphValidator30check_primal_availability_sync
FN:164,_RNvMs3_NtCsJMpZlj22r6_13biomeos_graph10validationNtB5_22EnhancedGraphValidator3new
FN:178,_RNvMs3_NtCsJMpZlj22r6_13biomeos_graph10validationNtB5_22EnhancedGraphValidator8validate
FN:81,_RINvMs0_NtCsJMpZlj22r6_13biomeos_graph10validationNtB6_15ValidationError3newReB1c_EB8_
FN:81,_RINvMs0_NtCsJMpZlj22r6_13biomeos_graph10validationNtB6_15ValidationError3newReNtNtCscmSb185pVu_5alloc6string6StringEB8_
FN:89,_RINvMs0_NtCsJMpZlj22r6_13biomeos_graph10validationNtB6_15ValidationError9with_nodeRNtNtCscmSb185pVu_5alloc6string6StringEB8_
FN:89,_RINvMs0_NtCsJMpZlj22r6_13biomeos_graph10validationNtB6_15ValidationError9with_nodeReEB8_
FN:104,_RINvMs1_NtCsJMpZlj22r6_13biomeos_graph10validationNtB6_17ValidationWarning3newReB1e_EB8_
FN:104,_RINvMs1_NtCsJMpZlj22r6_13biomeos_graph10validationNtB6_17ValidationWarning3newReNtNtCscmSb185pVu_5alloc6string6StringEB8_
FN:112,_RINvMs1_NtCsJMpZlj22r6_13biomeos_graph10validationNtB6_17ValidationWarning9with_nodeRNtNtCscmSb185pVu_5alloc6string6StringEB8_
FN:127,_RINvMs2_NtCsJMpZlj22r6_13biomeos_graph10validationNtB6_20ValidationSuggestion3newReB1h_EB8_
FN:127,_RINvMs2_NtCsJMpZlj22r6_13biomeos_graph10validationNtB6_20ValidationSuggestion3newReNtNtCscmSb185pVu_5alloc6string6StringEB8_
FN:307,_RNCNvMs3_NtCsJMpZlj22r6_13biomeos_graph10validationNtB7_22EnhancedGraphValidator14validate_edges0B9_
FN:380,_RNCNvMs3_NtCsJMpZlj22r6_13biomeos_graph10validationNtB7_22EnhancedGraphValidator18validate_no_cycles0B9_
FN:381,_RNCNvMs3_NtCsJMpZlj22r6_13biomeos_graph10validationNtB7_22EnhancedGraphValidator18validate_no_cycless_0B9_
FN:415,_RNCNvMs3_NtCsJMpZlj22r6_13biomeos_graph10validationNtB7_22EnhancedGraphValidator27add_performance_suggestions0B9_
FN:420,_RNCNvMs3_NtCsJMpZlj22r6_13biomeos_graph10validationNtB7_22EnhancedGraphValidator27add_performance_suggestionss_0B9_
FN:545,_RNvNtNtCsJMpZlj22r6_13biomeos_graph10validation5tests16create_test_node
FN:560,_RNvNtNtCsJMpZlj22r6_13biomeos_graph10validation5tests17create_test_graph
FN:590,_RNvNtNtCsJMpZlj22r6_13biomeos_graph10validation5testss_16test_empty_graph
FN:580,_RNvNtNtCsJMpZlj22r6_13biomeos_graph10validation5testss_16test_valid_graph
FN:635,_RNvNtNtCsJMpZlj22r6_13biomeos_graph10validation5testss_20test_cycle_detection
FN:652,_RNvNtNtCsJMpZlj22r6_13biomeos_graph10validation5testss_22test_self_loop_warning
FN:604,_RNvNtNtCsJMpZlj22r6_13biomeos_graph10validation5testss_23test_duplicate_node_ids
FN:667,_RNvNtNtCsJMpZlj22r6_13biomeos_graph10validation5testss_27test_empty_capability_error
FN:616,_RNvNtNtCsJMpZlj22r6_13biomeos_graph10validation5testss_27test_invalid_edge_reference
FN:695,_RNvNtNtCsJMpZlj22r6_13biomeos_graph10validation5testss_30test_validation_report_methods
FN:680,_RNvNtNtCsJMpZlj22r6_13biomeos_graph10validation5testss_31test_parallelization_suggestion
FNDA:0,_RINvMs2_NtCsJMpZlj22r6_13biomeos_graph10validationNtB6_20ValidationSuggestion9with_nodepEB8_
FNDA:0,_RNvMs3_NtCsJMpZlj22r6_13biomeos_graph10validationNtB5_22EnhancedGraphValidator27without_availability_checks
FNDA:0,_RNvXs4_NtCsJMpZlj22r6_13biomeos_graph10validationNtB5_22EnhancedGraphValidatorNtNtCs5GmCzIpY9Qj_4core7default7Default7default
FNDA:0,_RNvXs_NtCsJMpZlj22r6_13biomeos_graph10validationNtB4_16ValidationReportNtNtCs5GmCzIpY9Qj_4core7default7Default7default
FNDA:1,_RNCNvNtNtCsJMpZlj22r6_13biomeos_graph10validation5testss_16test_empty_graph0B7_
FNDA:1,_RNCNvNtNtCsJMpZlj22r6_13biomeos_graph10validation5testss_20test_cycle_detection0B7_
FNDA:1,_RNCNvNtNtCsJMpZlj22r6_13biomeos_graph10validation5testss_22test_self_loop_warning0B7_
FNDA:1,_RNCNvNtNtCsJMpZlj22r6_13biomeos_graph10validation5testss_23test_duplicate_node_ids0B7_
FNDA:1,_RNCNvNtNtCsJMpZlj22r6_13biomeos_graph10validation5testss_27test_empty_capability_error0B7_
FNDA:1,_RNCNvNtNtCsJMpZlj22r6_13biomeos_graph10validation5testss_27test_invalid_edge_reference0B7_
FNDA:1,_RNCNvNtNtCsJMpZlj22r6_13biomeos_graph10validation5testss_31test_parallelization_suggestion0B7_
FNDA:3,_RNvMNtCsJMpZlj22r6_13biomeos_graph10validationNtB2_16ValidationReport10has_issues
FNDA:2,_RNvMNtCsJMpZlj22r6_13biomeos_graph10validationNtB2_16ValidationReport11add_warning
FNDA:10,_RNvMNtCsJMpZlj22r6_13biomeos_graph10validationNtB2_16ValidationReport14add_suggestion
FNDA:9,_RNvMNtCsJMpZlj22r6_13biomeos_graph10validationNtB2_16ValidationReport3new
FNDA:8,_RNvMNtCsJMpZlj22r6_13biomeos_graph10validationNtB2_16ValidationReport9add_error
FNDA:8,_RNvMs3_NtCsJMpZlj22r6_13biomeos_graph10validationNtB5_22EnhancedGraphValidator14validate_edges
FNDA:8,_RNvMs3_NtCsJMpZlj22r6_13biomeos_graph10validationNtB5_22EnhancedGraphValidator14validate_nodes
FNDA:26,_RNvMs3_NtCsJMpZlj22r6_13biomeos_graph10validationNtB5_22EnhancedGraphValidator16dfs_chain_length
FNDA:8,_RNvMs3_NtCsJMpZlj22r6_13biomeos_graph10validationNtB5_22EnhancedGraphValidator18find_longest_chain
FNDA:8,_RNvMs3_NtCsJMpZlj22r6_13biomeos_graph10validationNtB5_22EnhancedGraphValidator18validate_no_cycles
FNDA:8,_RNvMs3_NtCsJMpZlj22r6_13biomeos_graph10validationNtB5_22EnhancedGraphValidator18validate_structure
FNDA:16,_RNvMs3_NtCsJMpZlj22r6_13biomeos_graph10validationNtB5_22EnhancedGraphValidator24validate_primal_selector
FNDA:8,_RNvMs3_NtCsJMpZlj22r6_13biomeos_graph10validationNtB5_22EnhancedGraphValidator27add_performance_suggestions
FNDA:8,_RNvMs3_NtCsJMpZlj22r6_13biomeos_graph10validationNtB5_22EnhancedGraphValidator30check_primal_availability_sync
FNDA:8,_RNvMs3_NtCsJMpZlj22r6_13biomeos_graph10validationNtB5_22EnhancedGraphValidator3new
FNDA:8,_RNvMs3_NtCsJMpZlj22r6_13biomeos_graph10validationNtB5_22EnhancedGraphValidator8validate
FNDA:5,_RINvMs0_NtCsJMpZlj22r6_13biomeos_graph10validationNtB6_15ValidationError3newReB1c_EB8_
FNDA:3,_RINvMs0_NtCsJMpZlj22r6_13biomeos_graph10validationNtB6_15ValidationError3newReNtNtCscmSb185pVu_5alloc6string6StringEB8_
FNDA:1,_RINvMs0_NtCsJMpZlj22r6_13biomeos_graph10validationNtB6_15ValidationError9with_nodeRNtNtCscmSb185pVu_5alloc6string6StringEB8_
FNDA:1,_RINvMs0_NtCsJMpZlj22r6_13biomeos_graph10validationNtB6_15ValidationError9with_nodeReEB8_
FNDA:1,_RINvMs1_NtCsJMpZlj22r6_13biomeos_graph10validationNtB6_17ValidationWarning3newReB1e_EB8_
FNDA:1,_RINvMs1_NtCsJMpZlj22r6_13biomeos_graph10validationNtB6_17ValidationWarning3newReNtNtCscmSb185pVu_5alloc6string6StringEB8_
FNDA:1,_RINvMs1_NtCsJMpZlj22r6_13biomeos_graph10validationNtB6_17ValidationWarning9with_nodeRNtNtCscmSb185pVu_5alloc6string6StringEB8_
FNDA:8,_RINvMs2_NtCsJMpZlj22r6_13biomeos_graph10validationNtB6_20ValidationSuggestion3newReB1h_EB8_
FNDA:2,_RINvMs2_NtCsJMpZlj22r6_13biomeos_graph10validationNtB6_20ValidationSuggestion3newReNtNtCscmSb185pVu_5alloc6string6StringEB8_
FNDA:16,_RNCNvMs3_NtCsJMpZlj22r6_13biomeos_graph10validationNtB7_22EnhancedGraphValidator14validate_edges0B9_
FNDA:15,_RNCNvMs3_NtCsJMpZlj22r6_13biomeos_graph10validationNtB7_22EnhancedGraphValidator18validate_no_cycles0B9_
FNDA:6,_RNCNvMs3_NtCsJMpZlj22r6_13biomeos_graph10validationNtB7_22EnhancedGraphValidator18validate_no_cycless_0B9_
FNDA:10,_RNCNvMs3_NtCsJMpZlj22r6_13biomeos_graph10validationNtB7_22EnhancedGraphValidator27add_performance_suggestions0B9_
FNDA:16,_RNCNvMs3_NtCsJMpZlj22r6_13biomeos_graph10validationNtB7_22EnhancedGraphValidator27add_performance_suggestionss_0B9_
FNDA:18,_RNvNtNtCsJMpZlj22r6_13biomeos_graph10validation5tests16create_test_node
FNDA:8,_RNvNtNtCsJMpZlj22r6_13biomeos_graph10validation5tests17create_test_graph
FNDA:1,_RNvNtNtCsJMpZlj22r6_13biomeos_graph10validation5testss_16test_empty_graph
FNDA:1,_RNvNtNtCsJMpZlj22r6_13biomeos_graph10validation5testss_16test_valid_graph
FNDA:1,_RNvNtNtCsJMpZlj22r6_13biomeos_graph10validation5testss_20test_cycle_detection
FNDA:1,_RNvNtNtCsJMpZlj22r6_13biomeos_graph10validation5testss_22test_self_loop_warning
FNDA:1,_RNvNtNtCsJMpZlj22r6_13biomeos_graph10validation5testss_23test_duplicate_node_ids
FNDA:1,_RNvNtNtCsJMpZlj22r6_13biomeos_graph10validation5testss_27test_empty_capability_error
FNDA:1,_RNvNtNtCsJMpZlj22r6_13biomeos_graph10validation5testss_27test_invalid_edge_reference
FNDA:1,_RNvNtNtCsJMpZlj22r6_13biomeos_graph10validation5testss_30test_validation_report_methods
FNDA:1,_RNvNtNtCsJMpZlj22r6_13biomeos_graph10validation5testss_31test_parallelization_suggestion
FNF:48
FNH:44
DA:37,9
DA:38,9
DA:39,9
DA:40,9
DA:41,9
DA:42,9
DA:43,9
DA:44,9
DA:45,9
DA:47,8
DA:48,8
DA:49,8
DA:50,8
DA:52,2
DA:53,2
DA:54,2
DA:56,10
DA:57,10
DA:58,10
DA:61,3
DA:62,3
DA:63,3
DA:67,0
DA:68,0
DA:69,0
DA:81,8
DA:82,8
DA:83,8
DA:84,8
DA:85,8
DA:86,8
DA:87,8
DA:89,2
DA:90,2
DA:91,2
DA:92,2
DA:104,2
DA:105,2
DA:106,2
DA:107,2
DA:108,2
DA:109,2
DA:110,2
DA:112,1
DA:113,1
DA:114,1
DA:115,1
DA:127,10
DA:128,10
DA:129,10
DA:130,10
DA:131,10
DA:132,10
DA:133,10
DA:135,0
DA:136,0
DA:137,0
DA:138,0
DA:164,8
DA:165,8
DA:166,8
DA:167,8
DA:168,8
DA:171,0
DA:172,0
DA:173,0
DA:174,0
DA:175,0
DA:178,8
DA:179,8
DA:182,8
DA:185,8
DA:188,8
DA:191,8
DA:194,8
DA:197,8
DA:198,8
DA:199,8
DA:201,8
DA:202,8
DA:204,8
DA:206,8
DA:207,1
DA:208,7
DA:211,8
DA:212,24
DA:213,16
DA:214,1
DA:215,1
DA:216,1
DA:217,1
DA:218,1
DA:219,1
DA:220,1
DA:221,15
DA:225,8
DA:226,0
DA:227,0
DA:228,0
DA:229,0
DA:230,0
DA:231,0
DA:232,0
DA:233,8
DA:235,8
DA:236,8
DA:238,8
DA:239,24
DA:241,16
DA:242,0
DA:243,16
DA:246,16
DA:247,0
DA:248,0
DA:249,0
DA:250,0
DA:251,0
DA:252,0
DA:253,0
DA:254,16
DA:257,16
DA:260,8
DA:261,8
DA:263,16
DA:264,16
DA:265,16
DA:266,16
DA:267,16
DA:268,16
DA:269,16
DA:270,0
DA:271,0
DA:272,0
DA:273,0
DA:274,0
DA:275,0
DA:276,0
DA:277,0
DA:278,0
DA:279,0
DA:281,16
DA:282,16
DA:283,1
DA:284,1
DA:285,1
DA:286,1
DA:287,1
DA:288,1
DA:289,1
DA:290,15
DA:292,0
DA:293,0
DA:294,0
DA:295,0
DA:296,0
DA:297,0
DA:298,0
DA:299,0
DA:300,0
DA:301,0
DA:304,16
DA:306,8
DA:307,16
DA:309,18
DA:311,10
DA:312,0
DA:313,0
DA:314,0
DA:315,0
DA:316,10
DA:319,10
DA:320,1
DA:321,1
DA:322,1
DA:323,1
DA:324,9
DA:327,10
DA:328,1
DA:329,1
DA:330,1
DA:331,1
DA:332,1
DA:333,1
DA:334,1
DA:335,9
DA:338,8
DA:339,8
DA:341,8
DA:343,8
DA:345,24
DA:346,16
DA:347,16
DA:349,18
DA:351,10
DA:352,10
DA:353,10
DA:354,10
DA:355,10
DA:359,8
DA:362,24
DA:363,16
DA:364,16
DA:367,15
DA:368,25
DA:369,10
DA:370,9
DA:371,9
DA:378,8
DA:379,8
DA:380,15
DA:381,8
DA:382,8
DA:384,8
DA:386,19
DA:387,11
DA:389,11
DA:390,17
DA:391,6
DA:392,5
DA:393,5
DA:394,5
DA:395,5
DA:396,1
DA:399,0
DA:403,8
DA:404,3
DA:405,3
DA:406,3
DA:407,3
DA:408,5
DA:410,8
DA:411,8
DA:413,8
DA:415,10
DA:417,8
DA:418,8
DA:419,8
DA:420,16
DA:421,8
DA:423,8
DA:424,2
DA:425,2
DA:426,2
DA:427,2
DA:428,2
DA:429,2
DA:430,2
DA:431,6
DA:434,8
DA:435,8
DA:436,0
DA:437,0
DA:438,0
DA:439,0
DA:440,0
DA:441,0
DA:442,0
DA:443,8
DA:444,8
DA:446,8
DA:447,8
DA:449,24
DA:450,16
DA:451,16
DA:453,18
DA:454,10
DA:455,10
DA:456,10
DA:457,10
DA:458,10
DA:461,8
DA:462,8
DA:464,24
DA:465,16
DA:466,16
DA:467,16
DA:469,8
DA:470,8
DA:472,26
DA:473,26
DA:474,26
DA:475,26
DA:476,26
DA:477,26
DA:479,26
DA:480,10
DA:481,16
DA:484,16
DA:486,16
DA:487,16
DA:488,25
DA:489,10
DA:490,10
DA:491,10
DA:492,1
DA:494,16
DA:495,16
DA:496,16
DA:497,26
DA:499,8
DA:501,8
DA:503,24
DA:504,16
DA:505,0
DA:506,0
DA:507,0
DA:508,16
DA:509,16
DA:510,16
DA:511,0
DA:512,0
DA:513,0
DA:518,24
DA:519,16
DA:520,16
DA:521,16
DA:522,16
DA:523,16
DA:524,16
DA:525,16
DA:527,8
DA:531,8
DA:535,0
DA:536,0
DA:537,0
DA:545,18
DA:546,18
DA:547,18
DA:548,18
DA:549,18
DA:550,18
DA:551,18
DA:552,18
DA:553,18
DA:554,18
DA:555,18
DA:556,18
DA:557,18
DA:558,18
DA:560,8
DA:561,8
DA:562,8
DA:563,8
DA:564,8
DA:565,8
DA:566,8
DA:567,8
DA:568,8
DA:569,8
DA:570,8
DA:571,8
DA:572,8
DA:573,8
DA:574,8
DA:575,8
DA:576,8
DA:577,8
DA:580,1
DA:581,1
DA:582,1
DA:583,1
DA:585,1
DA:586,1
DA:587,1
DA:590,1
DA:591,1
DA:592,1
DA:593,1
DA:595,1
DA:596,1
DA:598,1
DA:599,1
DA:600,1
DA:601,1
DA:604,1
DA:605,1
DA:606,1
DA:608,1
DA:609,1
DA:611,1
DA:612,1
DA:613,1
DA:616,1
DA:617,1
DA:618,1
DA:619,1
DA:620,1
DA:621,1
DA:622,1
DA:624,1
DA:625,1
DA:627,1
DA:628,1
DA:629,1
DA:630,1
DA:631,1
DA:632,1
DA:635,1
DA:636,1
DA:638,1
DA:639,1
DA:640,1
DA:641,1
DA:642,1
DA:644,1
DA:645,1
DA:647,1
DA:648,1
DA:649,1
DA:652,1
DA:653,1
DA:654,1
DA:655,1
DA:656,1
DA:657,1
DA:658,1
DA:660,1
DA:661,1
DA:663,1
DA:664,1
DA:667,1
DA:668,1
DA:669,1
DA:670,1
DA:671,1
DA:673,1
DA:674,1
DA:676,1
DA:677,1
DA:680,1
DA:681,1
DA:683,1
DA:685,1
DA:686,1
DA:688,1
DA:689,1
DA:690,1
DA:691,1
DA:692,1
DA:695,1
DA:696,1
DA:697,1
DA:698,1
DA:700,1
DA:701,1
DA:702,1
DA:704,1
DA:705,1
DA:706,1
BRF:0
BRH:0
LF:461
LH:393
end_of_record
SF:/home/eastgate/Development/ecoPrimals/phase2/biomeOS/crates/biomeos-graph/src/validator.rs
FN:134,_RNvNtNtCsJMpZlj22r6_13biomeos_graph9validator5testss_16test_empty_graph
FN:108,_RNvNtNtCsJMpZlj22r6_13biomeos_graph9validator5testss_16test_valid_graph
FN:191,_RNvNtNtCsJMpZlj22r6_13biomeos_graph9validator5testss_17test_cyclic_graph
FN:149,_RNvNtNtCsJMpZlj22r6_13biomeos_graph9validator5testss_23test_duplicate_node_ids
FN:69,_RNvMNtCsJMpZlj22r6_13biomeos_graph9validatorNtB2_14GraphValidator13check_acyclic
FN:33,_RNvMNtCsJMpZlj22r6_13biomeos_graph9validatorNtB2_14GraphValidator15check_not_empty
FN:54,_RNvMNtCsJMpZlj22r6_13biomeos_graph9validatorNtB2_14GraphValidator17check_valid_edges
FN:96,_RNvMNtCsJMpZlj22r6_13biomeos_graph9validatorNtB2_14GraphValidator21check_parallel_groups
FN:43,_RNvMNtCsJMpZlj22r6_13biomeos_graph9validatorNtB2_14GraphValidator21check_unique_node_ids
FN:23,_RNvMNtCsJMpZlj22r6_13biomeos_graph9validatorNtB2_14GraphValidator8validate
FNDA:1,_RNvNtNtCsJMpZlj22r6_13biomeos_graph9validator5testss_16test_empty_graph
FNDA:1,_RNvNtNtCsJMpZlj22r6_13biomeos_graph9validator5testss_16test_valid_graph
FNDA:1,_RNvNtNtCsJMpZlj22r6_13biomeos_graph9validator5testss_17test_cyclic_graph
FNDA:1,_RNvNtNtCsJMpZlj22r6_13biomeos_graph9validator5testss_23test_duplicate_node_ids
FNDA:2,_RNvMNtCsJMpZlj22r6_13biomeos_graph9validatorNtB2_14GraphValidator13check_acyclic
FNDA:4,_RNvMNtCsJMpZlj22r6_13biomeos_graph9validatorNtB2_14GraphValidator15check_not_empty
FNDA:2,_RNvMNtCsJMpZlj22r6_13biomeos_graph9validatorNtB2_14GraphValidator17check_valid_edges
FNDA:1,_RNvMNtCsJMpZlj22r6_13biomeos_graph9validatorNtB2_14GraphValidator21check_parallel_groups
FNDA:3,_RNvMNtCsJMpZlj22r6_13biomeos_graph9validatorNtB2_14GraphValidator21check_unique_node_ids
FNDA:4,_RNvMNtCsJMpZlj22r6_13biomeos_graph9validatorNtB2_14GraphValidator8validate
FNF:10
FNH:10
DA:23,4
DA:24,4
DA:25,3
DA:26,2
DA:27,2
DA:28,1
DA:29,1
DA:30,4
DA:33,4
DA:34,4
DA:35,1
DA:36,1
DA:37,1
DA:38,3
DA:39,3
DA:40,4
DA:43,3
DA:44,3
DA:45,7
DA:46,5
DA:47,1
DA:48,4
DA:50,2
DA:51,3
DA:54,2
DA:55,2
DA:57,4
DA:58,2
DA:59,0
DA:60,2
DA:61,2
DA:62,0
DA:63,2
DA:65,2
DA:66,2
DA:69,2
DA:71,2
DA:72,2
DA:75,5
DA:76,3
DA:77,3
DA:78,3
DA:81,4
DA:82,2
DA:83,2
DA:84,2
DA:85,2
DA:88,2
DA:89,1
DA:90,1
DA:92,1
DA:93,2
DA:96,1
DA:99,1
DA:100,1
DA:108,1
DA:109,1
DA:110,1
DA:111,1
DA:112,1
DA:113,1
DA:114,1
DA:115,1
DA:116,1
DA:117,1
DA:118,1
DA:119,1
DA:120,1
DA:121,1
DA:122,1
DA:123,1
DA:124,1
DA:125,1
DA:126,1
DA:127,1
DA:128,1
DA:130,1
DA:131,1
DA:134,1
DA:135,1
DA:136,1
DA:137,1
DA:138,1
DA:139,1
DA:140,1
DA:141,1
DA:142,1
DA:143,1
DA:145,1
DA:146,1
DA:149,1
DA:150,1
DA:151,1
DA:152,1
DA:153,1
DA:154,1
DA:155,1
DA:156,1
DA:157,1
DA:158,1
DA:159,1
DA:160,1
DA:161,1
DA:162,1
DA:163,1
DA:164,1
DA:165,1
DA:166,1
DA:167,1
DA:168,1
DA:169,1
DA:170,1
DA:171,1
DA:172,1
DA:173,1
DA:174,1
DA:175,1
DA:176,1
DA:177,1
DA:178,1
DA:179,1
DA:180,1
DA:181,1
DA:182,1
DA:183,1
DA:185,1
DA:186,1
DA:187,1
DA:188,1
DA:191,1
DA:192,1
DA:193,1
DA:194,1
DA:195,1
DA:196,1
DA:197,1
DA:198,1
DA:199,1
DA:200,1
DA:201,1
DA:202,1
DA:203,1
DA:204,1
DA:205,1
DA:206,1
DA:207,1
DA:208,1
DA:209,1
DA:210,1
DA:211,1
DA:212,1
DA:213,1
DA:214,1
DA:215,1
DA:216,1
DA:217,1
DA:218,1
DA:219,1
DA:220,1
DA:221,1
DA:222,1
DA:223,1
DA:224,1
DA:225,1
DA:226,1
DA:227,1
DA:228,1
DA:229,1
DA:230,1
DA:231,1
DA:232,1
DA:233,1
DA:234,1
DA:235,1
DA:236,1
DA:238,1
DA:239,1
DA:240,1
DA:241,1
BRF:0
BRH:0
LF:179
LH:177
end_of_record